Component: ARM Compiler 5.06 update 5 (build 528) Tool: armlink [4d35e2]

==============================================================================

Section Cross References

    main.o(.text) refers to dfs_ramfs.o(.text) for dfs_ramfs_create
    main.o(.text) refers to dfs_fs.o(.text) for dfs_mount
    main.o(.text) refers to main.o(.bss) for ramfs_pool
    usb_winusb.o(.text) refers to ipc.o(.text) for rt_mq_recv
    usb_winusb.o(.text) refers to dfs_posix.o(.text) for stat
    usb_winusb.o(.text) refers to completion.o(.text) for rt_completion_init
    usb_winusb.o(.text) refers to device.o(.text) for rt_device_write
    usb_winusb.o(.text) refers to mem.o(.text) for rt_malloc
    usb_winusb.o(.text) refers to kservice.o(.text) for rt_assert_handler
    usb_winusb.o(.text) refers to fopen.o(.text) for fopen
    usb_winusb.o(.text) refers to freadfast.o(.text) for fread
    usb_winusb.o(.text) refers to fclose.o(.text) for fclose
    usb_winusb.o(.text) refers to dfs_file.o(.text) for dfs_file_unlink
    usb_winusb.o(.text) refers to fwritefast.o(.text) for fwrite
    usb_winusb.o(.text) refers to strcpy.o(.text) for strcpy
    usb_winusb.o(.text) refers to thread.o(.text) for rt_thread_init
    usb_winusb.o(.text) refers to usb_winusb.o(.bss) for usb_mq
    usb_winusb.o(.text) refers to usb_winusb.o(.constdata) for __FUNCTION__
    usb_winusb.o(.rti_fn.6) refers to usb_winusb.o(.text) for application_usb_init
    board.o(.text) refers to stm32f4xx_hal_rcc_ex.o(.text) for HAL_RCC_OscConfig
    board.o(.text) refers to stm32f4xx_hal_rcc.o(.text) for HAL_RCC_ClockConfig
    board.o(.text) refers to irq.o(.text) for rt_interrupt_enter
    board.o(.text) refers to stm32f4xx_hal.o(.text) for HAL_IncTick
    board.o(.text) refers to clock.o(.text) for rt_tick_increase
    board.o(.text) refers to stm32f4xx_hal_cortex.o(.text) for HAL_SYSTICK_Config
    board.o(.text) refers to thread.o(.text) for rt_thread_delay
    board.o(.text) refers to mem.o(.text) for rt_system_heap_init
    board.o(.text) refers to components.o(.text) for rt_components_board_init
    board.o(.text) refers to kservice.o(.text) for rt_console_set_device
    drv_gpio.o(.text) refers to stm32f4xx_hal_gpio.o(.text) for HAL_GPIO_WritePin
    drv_gpio.o(.text) refers to context_rvds.o(.text) for rt_hw_interrupt_disable
    drv_gpio.o(.text) refers to drv_gpio.o(.constdata) for pins
    drv_gpio.o(.text) refers to drv_gpio.o(.data) for pin_irq_hdr_tab
    drv_gpio.o(.text) refers to stm32f4xx_hal_cortex.o(.text) for HAL_NVIC_SetPriority
    drv_gpio.o(.text) refers to pin.o(.text) for rt_device_pin_register
    drv_gpio.o(.text) refers to irq.o(.text) for rt_interrupt_enter
    drv_gpio.o(.constdata) refers to drv_gpio.o(.text) for GPIOE_CLK_ENABLE
    drv_gpio.o(.rti_fn.1) refers to drv_gpio.o(.text) for rt_hw_pin_init
    drv_usart.o(.text) refers to kservice.o(.text) for rt_assert_handler
    drv_usart.o(.text) refers to stm32f4xx_hal_uart.o(.text) for HAL_UART_Init
    drv_usart.o(.text) refers to irq.o(.text) for rt_interrupt_enter
    drv_usart.o(.text) refers to serial.o(.text) for rt_hw_serial_isr
    drv_usart.o(.text) refers to stm32f4xx_hal_gpio.o(.text) for HAL_GPIO_Init
    drv_usart.o(.text) refers to drv_usart.o(.constdata) for __FUNCTION__
    drv_usart.o(.text) refers to drv_usart.o(.bss) for uart3
    drv_usart.o(.constdata) refers to drv_usart.o(.text) for drv_configure
    drv_usart.o(.rti_fn.1) refers to drv_usart.o(.text) for hw_usart_init
    drv_usbd.o(.text) refers to irq.o(.text) for rt_interrupt_enter
    drv_usbd.o(.text) refers to stm32f4xx_hal_pcd.o(.text) for HAL_PCD_IRQHandler
    drv_usbd.o(.text) refers to core.o(.text) for rt_usbd_reset_handler
    drv_usbd.o(.text) refers to stm32f4xx_hal_gpio.o(.text) for HAL_GPIO_Init
    drv_usbd.o(.text) refers to stm32f4xx_hal_cortex.o(.text) for HAL_NVIC_SetPriority
    drv_usbd.o(.text) refers to kservice.o(.text) for rt_assert_handler
    drv_usbd.o(.text) refers to stm32f4xx_hal_pcd_ex.o(.text) for HAL_PCDEx_SetRxFiFo
    drv_usbd.o(.text) refers to device.o(.text) for rt_device_register
    drv_usbd.o(.text) refers to usbdevice.o(.text) for rt_usb_device_init
    drv_usbd.o(.text) refers to drv_usbd.o(.bss) for _stm_pcd
    drv_usbd.o(.text) refers to drv_usbd.o(.constdata) for __FUNCTION__
    drv_usbd.o(.text) refers to drv_usbd.o(.data) for _ep_pool
    drv_usbd.o(.constdata) refers to drv_usbd.o(.text) for _set_address
    drv_usbd.o(.rti_fn.3) refers to drv_usbd.o(.text) for stm_usbd_register
    system_stm32f4xx.o(.text) refers to system_stm32f4xx.o(.data) for SystemCoreClock
    system_stm32f4xx.o(.text) refers to system_stm32f4xx.o(.constdata) for AHBPrescTable
    startup_stm32f412zx.o(STACK) refers (Special) to heapauxi.o(.text) for __use_two_region_memory
    startup_stm32f412zx.o(HEAP) refers (Special) to heapauxi.o(.text) for __use_two_region_memory
    startup_stm32f412zx.o(RESET) refers (Special) to heapauxi.o(.text) for __use_two_region_memory
    startup_stm32f412zx.o(RESET) refers to startup_stm32f412zx.o(STACK) for __initial_sp
    startup_stm32f412zx.o(RESET) refers to startup_stm32f412zx.o(.text) for Reset_Handler
    startup_stm32f412zx.o(RESET) refers to stm32f4xx_it.o(.text) for NMI_Handler
    startup_stm32f412zx.o(RESET) refers to context_rvds.o(.text) for HardFault_Handler
    startup_stm32f412zx.o(RESET) refers to board.o(.text) for SysTick_Handler
    startup_stm32f412zx.o(RESET) refers to drv_gpio.o(.text) for EXTI0_IRQHandler
    startup_stm32f412zx.o(RESET) refers to drv_usart.o(.text) for USART3_IRQHandler
    startup_stm32f412zx.o(RESET) refers to drv_usbd.o(.text) for OTG_FS_IRQHandler
    startup_stm32f412zx.o(.text) refers (Special) to heapauxi.o(.text) for __use_two_region_memory
    startup_stm32f412zx.o(.text) refers to system_stm32f4xx.o(.text) for SystemInit
    startup_stm32f412zx.o(.text) refers to __main.o(!!!main) for __main
    startup_stm32f412zx.o(.text) refers to startup_stm32f412zx.o(HEAP) for Heap_Mem
    startup_stm32f412zx.o(.text) refers to startup_stm32f412zx.o(STACK) for Stack_Mem
    stm32f4xx_hal.o(.text) refers to stm32f4xx_hal_cortex.o(.text) for HAL_SYSTICK_Config
    stm32f4xx_hal.o(.text) refers to board.o(.text) for HAL_InitTick
    stm32f4xx_hal.o(.text) refers to system_stm32f4xx.o(.data) for SystemCoreClock
    stm32f4xx_hal.o(.text) refers to stm32f4xx_hal.o(.data) for uwTick
    stm32f4xx_hal_dma.o(.text) refers to stm32f4xx_hal.o(.text) for HAL_GetTick
    stm32f4xx_hal_dma.o(.text) refers to stm32f4xx_hal_dma.o(.constdata) for flagBitshiftOffset
    stm32f4xx_hal_dma.o(.text) refers to system_stm32f4xx.o(.data) for SystemCoreClock
    stm32f4xx_hal_flash.o(.text) refers to stm32f4xx_hal.o(.text) for HAL_GetTick
    stm32f4xx_hal_flash.o(.text) refers to stm32f4xx_hal_flash_ex.o(.text) for FLASH_Erase_Sector
    stm32f4xx_hal_flash.o(.text) refers to stm32f4xx_hal_flash.o(.bss) for pFlash
    stm32f4xx_hal_flash_ex.o(.text) refers to stm32f4xx_hal_flash.o(.text) for FLASH_WaitForLastOperation
    stm32f4xx_hal_flash_ex.o(.text) refers to stm32f4xx_hal_flash.o(.bss) for pFlash
    stm32f4xx_hal_gpio.o(.text) refers to drv_gpio.o(.text) for HAL_GPIO_EXTI_Callback
    stm32f4xx_hal_iwdg.o(.text) refers to stm32f4xx_hal.o(.text) for HAL_GetTick
    stm32f4xx_hal_pcd.o(.text) refers to drv_usbd.o(.text) for HAL_PCD_MspInit
    stm32f4xx_hal_pcd.o(.text) refers to stm32f4xx_ll_usb.o(.text) for USB_DisableGlobalInt
    stm32f4xx_hal_pcd.o(.text) refers to rt_memcpy_w.o(.text) for __aeabi_memcpy4
    stm32f4xx_hal_pcd.o(.text) refers to stm32f4xx_hal_pcd_ex.o(.text) for HAL_PCDEx_ActivateLPM
    stm32f4xx_hal_pcd.o(.text) refers to stm32f4xx_hal_rcc.o(.text) for HAL_RCC_GetHCLKFreq
    stm32f4xx_hal_pcd_ex.o(.text) refers to stm32f4xx_hal.o(.text) for HAL_GetTick
    stm32f4xx_hal_pcd_ex.o(.text) refers to board.o(.text) for HAL_Delay
    stm32f4xx_hal_pwr_ex.o(.text) refers to stm32f4xx_hal.o(.text) for HAL_GetTick
    stm32f4xx_hal_rcc.o(.text) refers to stm32f4xx_hal.o(.text) for HAL_GetTick
    stm32f4xx_hal_rcc.o(.text) refers to lludivv7m.o(.text) for __aeabi_uldivmod
    stm32f4xx_hal_rcc.o(.text) refers to board.o(.text) for HAL_InitTick
    stm32f4xx_hal_rcc.o(.text) refers to stm32f4xx_hal_gpio.o(.text) for HAL_GPIO_Init
    stm32f4xx_hal_rcc.o(.text) refers to system_stm32f4xx.o(.constdata) for AHBPrescTable
    stm32f4xx_hal_rcc.o(.text) refers to system_stm32f4xx.o(.data) for SystemCoreClock
    stm32f4xx_hal_rcc_ex.o(.text) refers to stm32f4xx_hal.o(.text) for HAL_GetTick
    stm32f4xx_hal_rcc_ex.o(.text) refers to board.o(.text) for HAL_InitTick
    stm32f4xx_hal_rcc_ex.o(.text) refers to system_stm32f4xx.o(.data) for SystemCoreClock
    stm32f4xx_hal_tim.o(.text) refers to stm32f4xx_hal_dma.o(.text) for HAL_DMA_Start_IT
    stm32f4xx_hal_tim.o(.text) refers to stm32f4xx_hal_tim_ex.o(.text) for HAL_TIMEx_BreakCallback
    stm32f4xx_hal_tim_ex.o(.text) refers to stm32f4xx_hal_tim.o(.text) for TIM_Base_SetConfig
    stm32f4xx_hal_tim_ex.o(.text) refers to stm32f4xx_hal_dma.o(.text) for HAL_DMA_Start_IT
    stm32f4xx_hal_uart.o(.text) refers to stm32f4xx_hal_rcc.o(.text) for HAL_RCC_GetPCLK2Freq
    stm32f4xx_hal_uart.o(.text) refers to drv_usart.o(.text) for HAL_UART_MspInit
    stm32f4xx_hal_uart.o(.text) refers to stm32f4xx_hal.o(.text) for HAL_GetTick
    stm32f4xx_hal_uart.o(.text) refers to stm32f4xx_hal_dma.o(.text) for HAL_DMA_Start_IT
    stm32f4xx_hal_usart.o(.text) refers to stm32f4xx_hal_rcc.o(.text) for HAL_RCC_GetPCLK2Freq
    stm32f4xx_hal_usart.o(.text) refers to stm32f4xx_hal.o(.text) for HAL_GetTick
    stm32f4xx_hal_usart.o(.text) refers to stm32f4xx_hal_dma.o(.text) for HAL_DMA_Start_IT
    stm32f4xx_ll_usb.o(.text) refers to board.o(.text) for HAL_Delay
    stm32f4xx_ll_usb.o(.text) refers to stm32f4xx_ll_usb.o(.data) for debug
    stm32f4xx_ll_utils.o(.text) refers to system_stm32f4xx.o(.data) for SystemCoreClock
    stm32f4xx_ll_utils.o(.text) refers to system_stm32f4xx.o(.constdata) for AHBPrescTable
    clock.o(.text) refers to context_rvds.o(.text) for rt_hw_interrupt_disable
    clock.o(.text) refers to thread.o(.text) for rt_thread_self
    clock.o(.text) refers to timer.o(.text) for rt_timer_check
    clock.o(.text) refers to clock.o(.data) for rt_tick
    components.o(.text) refers to main.o(.text) for $Super$$main
    components.o(.text) refers to thread.o(.text) for rt_thread_create
    components.o(.text) refers to kservice.o(.text) for rt_assert_handler
    components.o(.text) refers to context_rvds.o(.text) for rt_hw_interrupt_disable
    components.o(.text) refers to board.o(.text) for rt_hw_board_init
    components.o(.text) refers to timer.o(.text) for rt_system_timer_init
    components.o(.text) refers to scheduler.o(.text) for rt_system_scheduler_init
    components.o(.text) refers to idle.o(.text) for rt_thread_idle_init
    components.o(.text) refers to components.o(.rti_fn.0.end) for __rt_init_rti_board_start
    components.o(.text) refers to components.o(.rti_fn.1.end) for __rt_init_rti_board_end
    components.o(.text) refers to components.o(.rti_fn.6.end) for __rt_init_rti_end
    components.o(.text) refers to components.o(.constdata) for __FUNCTION__
    components.o(.rti_fn.0) refers to components.o(.text) for rti_start
    components.o(.rti_fn.0.end) refers to components.o(.text) for rti_board_start
    components.o(.rti_fn.1.end) refers to components.o(.text) for rti_board_end
    components.o(.rti_fn.6.end) refers to components.o(.text) for rti_end
    device.o(.text) refers to thread.o(.text) for rt_thread_self
    device.o(.text) refers to scheduler.o(.text) for rt_enter_critical
    device.o(.text) refers to object.o(.text) for rt_object_get_information
    device.o(.text) refers to kservice.o(.text) for rt_assert_handler
    device.o(.text) refers to mem.o(.text) for rt_malloc
    device.o(.text) refers to device.o(.constdata) for __FUNCTION__
    idle.o(.text) refers to context_rvds.o(.text) for rt_hw_interrupt_disable
    idle.o(.text) refers to irq.o(.text) for rt_interrupt_get_nest
    idle.o(.text) refers to kservice.o(.text) for rt_kprintf
    idle.o(.text) refers to object.o(.text) for rt_object_is_systemobject
    idle.o(.text) refers to mem.o(.text) for rt_free
    idle.o(.text) refers to thread.o(.text) for rt_thread_init
    idle.o(.text) refers to idle.o(.data) for rt_thread_idle_hook
    idle.o(.text) refers to idle.o(.constdata) for __FUNCTION__
    idle.o(.text) refers to scheduler.o(.data) for rt_thread_defunct
    idle.o(.text) refers to idle.o(.bss) for rt_thread_stack
    ipc.o(.text) refers to thread.o(.text) for rt_thread_suspend
    ipc.o(.text) refers to context_rvds.o(.text) for rt_hw_interrupt_disable
    ipc.o(.text) refers to kservice.o(.text) for rt_assert_handler
    ipc.o(.text) refers to object.o(.text) for rt_object_init
    ipc.o(.text) refers to irq.o(.text) for rt_interrupt_get_nest
    ipc.o(.text) refers to timer.o(.text) for rt_timer_control
    ipc.o(.text) refers to scheduler.o(.text) for rt_schedule
    ipc.o(.text) refers to ipc.o(.constdata) for __FUNCTION__
    ipc.o(.text) refers to object.o(.data) for rt_object_trytake_hook
    ipc.o(.text) refers to mem.o(.text) for rt_malloc
    ipc.o(.text) refers to clock.o(.text) for rt_tick_get
    irq.o(.text) refers to context_rvds.o(.text) for rt_hw_interrupt_disable
    irq.o(.text) refers to irq.o(.data) for rt_interrupt_enter_hook
    kservice.o(.text) refers to irq.o(.text) for rt_interrupt_get_nest
    kservice.o(.text) refers to thread.o(.text) for rt_thread_self
    kservice.o(.text) refers to mem.o(.text) for rt_malloc
    kservice.o(.text) refers to kservice.o(.data) for __rt_errno
    kservice.o(.text) refers to kservice.o(.constdata) for large_digits
    kservice.o(.text) refers to device.o(.text) for rt_device_write
    kservice.o(.text) refers to kservice.o(.bss) for rt_log_buf
    mem.o(.text) refers to kservice.o(.text) for rt_assert_handler
    mem.o(.text) refers to context_rvds.o(.text) for rt_hw_interrupt_disable
    mem.o(.text) refers to irq.o(.text) for rt_interrupt_get_nest
    mem.o(.text) refers to ipc.o(.text) for rt_sem_init
    mem.o(.text) refers to mem.o(.data) for rt_malloc_hook
    mem.o(.text) refers to mem.o(.constdata) for __FUNCTION__
    mem.o(.text) refers to mem.o(.bss) for heap_sem
    mem.o(.text) refers to mem.o(.conststring) for .conststring
    mem.o(FSymTab) refers to mem.o(.rodata.name) for __fsym_list_mem_name
    mem.o(FSymTab) refers to mem.o(.text) for list_mem
    memheap.o(.text) refers to kservice.o(.text) for rt_assert_handler
    memheap.o(.text) refers to object.o(.text) for rt_object_init
    memheap.o(.text) refers to ipc.o(.text) for rt_sem_init
    memheap.o(.text) refers to memheap.o(.constdata) for __FUNCTION__
    mempool.o(.text) refers to kservice.o(.text) for rt_assert_handler
    mempool.o(.text) refers to object.o(.text) for rt_object_init
    mempool.o(.text) refers to context_rvds.o(.text) for rt_hw_interrupt_disable
    mempool.o(.text) refers to thread.o(.text) for rt_thread_resume
    mempool.o(.text) refers to irq.o(.text) for rt_interrupt_get_nest
    mempool.o(.text) refers to mem.o(.text) for rt_malloc
    mempool.o(.text) refers to clock.o(.text) for rt_tick_get
    mempool.o(.text) refers to timer.o(.text) for rt_timer_control
    mempool.o(.text) refers to scheduler.o(.text) for rt_schedule
    mempool.o(.text) refers to mempool.o(.data) for rt_mp_alloc_hook
    mempool.o(.text) refers to mempool.o(.constdata) for __FUNCTION__
    object.o(.text) refers to kservice.o(.text) for rt_assert_handler
    object.o(.text) refers to context_rvds.o(.text) for rt_hw_interrupt_disable
    object.o(.text) refers to irq.o(.text) for rt_interrupt_get_nest
    object.o(.text) refers to mem.o(.text) for rt_malloc
    object.o(.text) refers to scheduler.o(.text) for rt_enter_critical
    object.o(.text) refers to object.o(.data) for rt_object_attach_hook
    object.o(.text) refers to object.o(.constdata) for __FUNCTION__
    scheduler.o(.text) refers to kservice.o(.text) for rt_assert_handler
    scheduler.o(.text) refers to cmd.o(.text) for list_thread
    scheduler.o(.text) refers to context_rvds.o(.text) for rt_hw_interrupt_disable
    scheduler.o(.text) refers to scheduler.o(.data) for rt_scheduler_hook
    scheduler.o(.text) refers to scheduler.o(.constdata) for __FUNCTION__
    scheduler.o(.text) refers to scheduler.o(.bss) for rt_thread_priority_table
    scheduler.o(.text) refers to irq.o(.data) for rt_interrupt_nest
    thread.o(.text) refers to context_rvds.o(.text) for rt_hw_interrupt_disable
    thread.o(.text) refers to scheduler.o(.text) for rt_schedule_remove_thread
    thread.o(.text) refers to timer.o(.text) for rt_timer_detach
    thread.o(.text) refers to object.o(.text) for rt_object_is_systemobject
    thread.o(.text) refers to kservice.o(.text) for rt_assert_handler
    thread.o(.text) refers to cpuport.o(.text) for rt_hw_stack_init
    thread.o(.text) refers to mem.o(.text) for rt_malloc
    thread.o(.text) refers to thread.o(.data) for rt_thread_suspend_hook
    thread.o(.text) refers to scheduler.o(.data) for rt_current_thread
    thread.o(.text) refers to thread.o(.constdata) for __FUNCTION__
    thread.o(.text) refers to scheduler.o(.bss) for rt_thread_priority_table
    timer.o(.text) refers to kservice.o(.text) for rt_assert_handler
    timer.o(.text) refers to object.o(.text) for rt_object_init
    timer.o(.text) refers to context_rvds.o(.text) for rt_hw_interrupt_disable
    timer.o(.text) refers to clock.o(.text) for rt_tick_get
    timer.o(.text) refers to timer.o(.data) for rt_timer_timeout_hook
    timer.o(.text) refers to timer.o(.constdata) for __FUNCTION__
    timer.o(.text) refers to object.o(.data) for rt_object_take_hook
    cpuport.o(.text) refers to kservice.o(.text) for rt_kprintf
    cpuport.o(.text) refers to thread.o(.text) for rt_thread_self
    cpuport.o(.text) refers to cmd.o(.text) for list_thread
    cpuport.o(.text) refers to cpuport.o(.data) for rt_exception_hook
    cpuport.o(.text) refers to cpuport.o(.constdata) for __FUNCTION__
    context_rvds.o(.text) refers to cpuport.o(.text) for rt_hw_hard_fault_exception
    context_rvds.o(.text) refers to cpuport.o(.data) for rt_thread_switch_interrupt_flag
    showmem.o(.text) refers to kservice.o(.text) for rt_assert_handler
    showmem.o(.text) refers to showmem.o(.constdata) for __FUNCTION__
    dfs.o(.text) refers to rt_memclr_w.o(.text) for __aeabi_memclr4
    dfs.o(.text) refers to ipc.o(.text) for rt_mutex_init
    dfs.o(.text) refers to devfs.o(.text) for devfs_init
    dfs.o(.text) refers to dfs_fs.o(.text) for dfs_mount
    dfs.o(.text) refers to kservice.o(.text) for rt_assert_handler
    dfs.o(.text) refers to strlen.o(.text) for strlen
    dfs.o(.text) refers to mem.o(.text) for rt_malloc
    dfs.o(.text) refers to strcmpv7m.o(.text) for strcmp
    dfs.o(.text) refers to scheduler.o(.text) for rt_enter_critical
    dfs.o(.text) refers to dfs.o(.data) for filesystem_operation_table
    dfs.o(.text) refers to dfs.o(.bss) for filesystem_table
    dfs.o(.text) refers to dfs.o(.constdata) for __FUNCTION__
    dfs.o(.rti_fn.2) refers to dfs.o(.text) for dfs_init
    dfs.o(FSymTab) refers to dfs.o(.rodata.name) for __fsym___cmd_list_fd_name
    dfs.o(FSymTab) refers to dfs.o(.text) for list_fd
    dfs_file.o(.text) refers to dfs.o(.text) for dfs_normalize_path
    dfs_file.o(.text) refers to mem.o(.text) for rt_free
    dfs_file.o(.text) refers to dfs_fs.o(.text) for dfs_filesystem_lookup
    dfs_file.o(.text) refers to kservice.o(.text) for rt_strdup
    dfs_file.o(.text) refers to dfs.o(.data) for working_directory
    dfs_file.o(.text) refers to rt_memclr.o(.text) for __aeabi_memclr
    dfs_file.o(.text) refers to rt_memclr_w.o(.text) for __aeabi_memclr4
    dfs_file.o(.text) refers to strcmpv7m.o(.text) for strcmp
    dfs_file.o(.text) refers to dfs_posix.o(.text) for mkdir
    dfs_file.o(.text) refers to strrchr.o(.text) for strrchr
    dfs_file.o(.text) refers to dfs_file.o(.bss) for fd
    dfs_file.o(FSymTab) refers to dfs_file.o(.rodata.name) for __fsym_ls_name
    dfs_file.o(FSymTab) refers to dfs_file.o(.text) for ls
    dfs_fs.o(.text) refers to dfs.o(.text) for dfs_lock
    dfs_fs.o(.text) refers to strcmpv7m.o(.text) for strcmp
    dfs_fs.o(.text) refers to kservice.o(.text) for rt_set_errno
    dfs_fs.o(.text) refers to strlen.o(.text) for strlen
    dfs_fs.o(.text) refers to strncmp.o(.text) for strncmp
    dfs_fs.o(.text) refers to device.o(.text) for rt_device_find
    dfs_fs.o(.text) refers to dfs_file.o(.text) for dfs_file_open
    dfs_fs.o(.text) refers to mem.o(.text) for rt_free
    dfs_fs.o(.text) refers to dfs.o(.data) for filesystem_operation_table
    dfs_fs.o(.text) refers to dfs_fs.o(.constdata) for __FUNCTION__
    dfs_fs.o(.text) refers to dfs.o(.bss) for filesystem_table
    dfs_fs.o(.text) refers to llsdiv.o(.text) for __aeabi_ldivmod
    dfs_fs.o(.constdata) refers to dfs_fs.o(.conststring) for .conststring
    dfs_fs.o(FSymTab) refers to dfs_fs.o(.rodata.name) for __fsym_mkfs_name
    dfs_fs.o(FSymTab) refers to dfs_fs.o(.text) for mkfs
    dfs_posix.o(.text) refers to dfs.o(.text) for fd_new
    dfs_posix.o(.text) refers to kservice.o(.text) for rt_set_errno
    dfs_posix.o(.text) refers to dfs_file.o(.text) for dfs_file_open
    dfs_posix.o(.text) refers to dfs_fs.o(.text) for dfs_statfs
    dfs_posix.o(.text) refers to mem.o(.text) for rt_malloc
    dfs_posix.o(.text) refers to rt_memclr_w.o(.text) for __aeabi_memclr4
    dfs_posix.o(.text) refers to strlen.o(.text) for strlen
    dfs_posix.o(.text) refers to strncpy.o(.text) for strncpy
    dfs_posix.o(.text) refers to scheduler.o(.text) for rt_enter_critical
    dfs_posix.o(.text) refers to dfs.o(.data) for working_directory
    dfs_posix.o(FSymTab) refers to dfs_posix.o(.rodata.name) for __fsym_mkdir_name
    dfs_posix.o(FSymTab) refers to dfs_posix.o(.text) for mkdir
    poll.o(.text) refers to waitqueue.o(.text) for __wqueue_default_wake
    poll.o(.text) refers to mem.o(.text) for rt_malloc
    poll.o(.text) refers to thread.o(.text) for rt_thread_self
    poll.o(.text) refers to clock.o(.text) for rt_tick_from_millisecond
    poll.o(.text) refers to context_rvds.o(.text) for rt_hw_interrupt_disable
    poll.o(.text) refers to timer.o(.text) for rt_timer_control
    poll.o(.text) refers to scheduler.o(.text) for rt_schedule
    poll.o(.text) refers to dfs.o(.text) for fd_get
    select.o(.text) refers to mem.o(.text) for rt_calloc
    select.o(.text) refers to kservice.o(.text) for rt_assert_handler
    select.o(.text) refers to poll.o(.text) for poll
    select.o(.text) refers to select.o(.constdata) for __FUNCTION__
    devfs.o(.text) refers to kservice.o(.text) for rt_assert_handler
    devfs.o(.text) refers to device.o(.text) for rt_device_control
    devfs.o(.text) refers to mem.o(.text) for rt_free
    devfs.o(.text) refers to scheduler.o(.text) for rt_enter_critical
    devfs.o(.text) refers to object.o(.text) for rt_object_get_information
    devfs.o(.text) refers to dfs_fs.o(.text) for dfs_register
    devfs.o(.text) refers to devfs.o(.constdata) for __FUNCTION__
    devfs.o(.constdata) refers to devfs.o(.text) for dfs_device_fs_open
    devfs.o(.constdata) refers to devfs.o(.conststring) for .conststring
    dfs_ramfs.o(.text) refers to kservice.o(.text) for rt_assert_handler
    dfs_ramfs.o(.text) refers to rt_memcpy_v6.o(.text) for __aeabi_memcpy
    dfs_ramfs.o(.text) refers to memheap.o(.text) for rt_memheap_realloc
    dfs_ramfs.o(.text) refers to strncpy.o(.text) for strncpy
    dfs_ramfs.o(.text) refers to dfs_ramfs.o(.constdata) for __FUNCTION__
    dfs_ramfs.o(.text) refers to dfs_fs.o(.text) for dfs_register
    dfs_ramfs.o(.text) refers to object.o(.text) for rt_object_detach
    dfs_ramfs.o(.text) refers to rt_memclr_w.o(.text) for __aeabi_memclr4
    dfs_ramfs.o(.constdata) refers to dfs_ramfs.o(.text) for dfs_ramfs_open
    dfs_ramfs.o(.constdata) refers to dfs_ramfs.o(.conststring) for .conststring
    dfs_ramfs.o(.rti_fn.4) refers to dfs_ramfs.o(.text) for dfs_ramfs_init
    pin.o(.text) refers to kservice.o(.text) for rt_assert_handler
    pin.o(.text) refers to device.o(.text) for rt_device_register
    pin.o(.text) refers to pin.o(.constdata) for __FUNCTION__
    pin.o(.text) refers to pin.o(.bss) for _hw_pin
    pin.o(FSymTab) refers to pin.o(.rodata.name) for __fsym_pinMode_name
    pin.o(FSymTab) refers to pin.o(.text) for rt_pin_mode
    serial.o(.text) refers to waitqueue.o(.text) for rt_wqueue_wakeup
    serial.o(.text) refers to kservice.o(.text) for rt_assert_handler
    serial.o(.text) refers to device.o(.text) for rt_device_set_rx_indicate
    serial.o(.text) refers to context_rvds.o(.text) for rt_hw_interrupt_disable
    serial.o(.text) refers to serial.o(.constdata) for __FUNCTION__
    serial.o(.text) refers to mem.o(.text) for rt_malloc
    serial.o(.text) refers to dataqueue.o(.text) for rt_data_queue_init
    serial.o(.text) refers to completion.o(.text) for rt_completion_init
    serial.o(.constdata) refers to serial.o(.text) for serial_fops_open
    completion.o(.text) refers to kservice.o(.text) for rt_assert_handler
    completion.o(.text) refers to context_rvds.o(.text) for rt_hw_interrupt_disable
    completion.o(.text) refers to thread.o(.text) for rt_thread_self
    completion.o(.text) refers to irq.o(.text) for rt_interrupt_get_nest
    completion.o(.text) refers to timer.o(.text) for rt_timer_control
    completion.o(.text) refers to scheduler.o(.text) for rt_schedule
    completion.o(.text) refers to completion.o(.constdata) for __FUNCTION__
    dataqueue.o(.text) refers to kservice.o(.text) for rt_assert_handler
    dataqueue.o(.text) refers to mem.o(.text) for rt_malloc
    dataqueue.o(.text) refers to thread.o(.text) for rt_thread_self
    dataqueue.o(.text) refers to context_rvds.o(.text) for rt_hw_interrupt_disable
    dataqueue.o(.text) refers to irq.o(.text) for rt_interrupt_get_nest
    dataqueue.o(.text) refers to timer.o(.text) for rt_timer_control
    dataqueue.o(.text) refers to scheduler.o(.text) for rt_schedule
    dataqueue.o(.text) refers to dataqueue.o(.constdata) for __FUNCTION__
    pipe.o(.text) refers to ipc.o(.text) for rt_mutex_take
    pipe.o(.text) refers to ringbuffer.o(.text) for rt_ringbuffer_create
    pipe.o(.text) refers to waitqueue.o(.text) for rt_wqueue_wakeup
    pipe.o(.text) refers to kservice.o(.text) for rt_set_errno
    pipe.o(.text) refers to mem.o(.text) for rt_malloc
    pipe.o(.text) refers to device.o(.text) for rt_device_register
    pipe.o(.text) refers to dfs_posix.o(.text) for open
    pipe.o(.text) refers to pipe.o(.constdata) for __FUNCTION__
    pipe.o(.text) refers to pipe.o(.data) for pipeno
    pipe.o(.constdata) refers to pipe.o(.text) for pipe_fops_open
    ringbuffer.o(.text) refers to kservice.o(.text) for rt_assert_handler
    ringbuffer.o(.text) refers to rt_memcpy_v6.o(.text) for __aeabi_memcpy
    ringbuffer.o(.text) refers to ringbuffer.o(.constdata) for __FUNCTION__
    ringbuffer.o(.text) refers to mem.o(.text) for rt_malloc
    waitqueue.o(.text) refers to context_rvds.o(.text) for rt_hw_interrupt_disable
    waitqueue.o(.text) refers to thread.o(.text) for rt_thread_resume
    waitqueue.o(.text) refers to scheduler.o(.text) for rt_schedule
    waitqueue.o(.text) refers to clock.o(.text) for rt_tick_from_millisecond
    waitqueue.o(.text) refers to irq.o(.text) for rt_interrupt_get_nest
    waitqueue.o(.text) refers to kservice.o(.text) for rt_kprintf
    waitqueue.o(.text) refers to timer.o(.text) for rt_timer_control
    waitqueue.o(.text) refers to scheduler.o(.data) for rt_current_thread
    waitqueue.o(.text) refers to waitqueue.o(.constdata) for __FUNCTION__
    workqueue.o(.text) refers to kservice.o(.text) for rt_assert_handler
    workqueue.o(.text) refers to thread.o(.text) for rt_thread_self
    workqueue.o(.text) refers to scheduler.o(.text) for rt_schedule
    workqueue.o(.text) refers to context_rvds.o(.text) for rt_hw_interrupt_disable
    workqueue.o(.text) refers to ipc.o(.text) for rt_sem_trytake
    workqueue.o(.text) refers to mem.o(.text) for rt_malloc
    workqueue.o(.text) refers to workqueue.o(.constdata) for __FUNCTION__
    core.o(.text) refers to kservice.o(.text) for rt_assert_handler
    core.o(.text) refers to core.o(.constdata) for __FUNCTION__
    core.o(.text) refers to mem.o(.text) for rt_malloc
    core.o(.text) refers to core.o(.data) for usb_comp_id_desc
    core.o(.text) refers to ipc.o(.text) for rt_mq_send
    core.o(.text) refers to core.o(.bss) for usb_mq
    core.o(.text) refers to thread.o(.text) for rt_thread_init
    usbdevice.o(.text) refers to core.o(.text) for rt_usbd_core_init
    usbdevice.o(.text) refers to device.o(.text) for rt_device_find
    usbdevice.o(.text) refers to kservice.o(.text) for rt_kprintf
    usbdevice.o(.text) refers to winusb.o(.text) for rt_usbd_function_winusb_create
    usbdevice.o(.text) refers to usbdevice.o(.data) for usb_comp_id_desc
    winusb.o(.text) refers to mem.o(.text) for rt_malloc
    winusb.o(.text) refers to kservice.o(.text) for rt_assert_handler
    winusb.o(.text) refers to core.o(.text) for rt_usbd_ep0_write
    winusb.o(.text) refers to device.o(.text) for rt_device_register
    winusb.o(.text) refers to winusb.o(.data) for data
    winusb.o(.text) refers to winusb.o(.constdata) for __FUNCTION__
    winusb.o(.data) refers to winusb.o(.conststring) for .conststring
    winusb.o(.data) refers to winusb.o(.text) for _function_enable
    shell.o(.text) refers to msh.o(.text) for msh_is_used
    shell.o(.text) refers to strcpy.o(.text) for strcpy
    shell.o(.text) refers to kservice.o(.text) for rt_strlen
    shell.o(.text) refers to dfs_posix.o(.text) for getcwd
    shell.o(.text) refers to strcat.o(.text) for strcat
    shell.o(.text) refers to getc.o(.text) for getc
    shell.o(.text) refers to memcmp.o(.text) for memcmp
    shell.o(.text) refers to rt_memcpy_v6.o(.text) for __aeabi_memcpy
    shell.o(.text) refers to rt_memclr.o(.text) for __aeabi_memclr
    shell.o(.text) refers to strlen.o(.text) for strlen
    shell.o(.text) refers to shell.o(.bss) for finsh_prompt
    shell.o(.text) refers to stdio_streams.o(.bss) for __stdin
    shell.o(.text) refers to shell.o(.data) for shell
    shell.o(.text) refers to shell.o(.constdata) for __FUNCTION__
    shell.o(.text) refers to mem.o(.text) for rt_malloc
    shell.o(.text) refers to rt_memclr_w.o(.text) for __aeabi_memclr4
    shell.o(.text) refers to ipc.o(.text) for rt_sem_init
    shell.o(.text) refers to thread.o(.text) for rt_thread_init
    shell.o(.text) refers to symbol.o(.data) for _syscall_table_begin
    shell.o(.rti_fn.6) refers to shell.o(.text) for finsh_system_init
    cmd.o(.text) refers to kservice.o(.text) for rt_kprintf
    cmd.o(.text) refers to scheduler.o(.text) for rt_enter_critical
    cmd.o(.text) refers to object.o(.text) for rt_object_get_information
    cmd.o(.text) refers to cmd.o(.conststring) for .conststring
    cmd.o(.text) refers to clock.o(.text) for rt_tick_get
    cmd.o(.text) refers to rt_memcpy_w.o(.text) for __aeabi_memcpy4
    cmd.o(.text) refers to strncmp.o(.text) for strncmp
    cmd.o(.text) refers to cmd.o(.constdata) for .constdata
    cmd.o(.text) refers to symbol.o(.data) for _syscall_table_begin
    cmd.o(.constdata) refers to cmd.o(.conststring) for .conststring
    cmd.o(FSymTab) refers to cmd.o(.rodata.name) for __fsym_hello_name
    cmd.o(FSymTab) refers to cmd.o(.text) for hello
    msh.o(.text) refers to kservice.o(.text) for rt_kprintf
    msh.o(.text) refers to strncmp.o(.text) for strncmp
    msh.o(.text) refers to rt_memclr_w.o(.text) for __aeabi_memclr4
    msh.o(.text) refers to msh_file.o(.text) for msh_exec_script
    msh.o(.text) refers to dfs_posix.o(.text) for chdir
    msh.o(.text) refers to mem.o(.text) for rt_malloc
    msh.o(.text) refers to strcat.o(.text) for strcat
    msh.o(.text) refers to strcpy.o(.text) for strcpy
    msh.o(.text) refers to symbol.o(.data) for _syscall_table_begin
    msh.o(.text) refers to msh.o(.constdata) for __FUNCTION__
    msh.o(.text) refers to rt_memcpy_v6.o(.text) for __aeabi_memcpy
    msh.o(.text) refers to strlen.o(.text) for strlen
    msh.o(FSymTab) refers to msh.o(.rodata.name) for __fsym___cmd_help_name
    msh.o(FSymTab) refers to msh.o(.text) for msh_help
    msh_cmd.o(.text) refers to dfs_file.o(.text) for ls
    msh_cmd.o(.text) refers to kservice.o(.text) for rt_kprintf
    msh_cmd.o(.text) refers to dfs_posix.o(.text) for open
    msh_cmd.o(.text) refers to mem.o(.text) for rt_malloc
    msh_cmd.o(.text) refers to dfs_fs.o(.text) for dfs_mkfs
    msh_cmd.o(.text) refers to strcmpv7m.o(.text) for strcmp
    msh_cmd.o(.text) refers to strlen.o(.text) for strlen
    msh_cmd.o(.text) refers to cmd.o(.text) for list_thread
    msh_cmd.o(.text) refers to dfs.o(.data) for working_directory
    msh_cmd.o(FSymTab) refers to msh_cmd.o(.rodata.name) for __fsym___cmd_ls_name
    msh_cmd.o(FSymTab) refers to msh_cmd.o(.text) for cmd_ls
    msh_file.o(.text) refers to dfs_posix.o(.text) for read
    msh_file.o(.text) refers to mem.o(.text) for rt_malloc
    msh_file.o(.text) refers to rt_memcpy_v6.o(.text) for __aeabi_memcpy
    msh_file.o(.text) refers to strstr.o(.text) for strstr
    msh_file.o(.text) refers to kservice.o(.text) for rt_snprintf
    msh_file.o(.text) refers to msh.o(.text) for msh_exec
    libc.o(.text) refers to kservice.o(.text) for rt_console_get_device
    libc.o(.text) refers to stdio.o(.text) for libc_stdio_set_console
    libc.o(.rti_fn.4) refers to libc.o(.text) for libc_system_init
    mem_std.o(.text) refers (Special) to hguard.o(.text) for __use_no_heap
    mem_std.o(.text) refers to mem.o(.text) for rt_malloc
    stdio.o(.text) refers to _printf_percent.o(.ARM.Collect$$_printf_percent$$00000000) for _printf_percent
    stdio.o(.text) refers to _printf_s.o(.ARM.Collect$$_printf_percent$$00000014) for _printf_s
    stdio.o(.text) refers to _printf_str.o(.text) for _printf_str
    stdio.o(.text) refers to noretval__2snprintf.o(.text) for __2snprintf
    stdio.o(.text) refers to dfs_posix.o(.text) for open
    stdio.o(.text) refers to stdio.o(.data) for std_fd
    stubs.o(.text) refers (Special) to use_no_semi.o(.text) for __use_no_semihosting_swi
    stubs.o(.text) refers to strcmpv7m.o(.text) for strcmp
    stubs.o(.text) refers to dfs_posix.o(.text) for open
    stubs.o(.text) refers to stdio.o(.text) for libc_stdio_read
    stubs.o(.text) refers to kservice.o(.text) for rt_kprintf
    stubs.o(.text) refers to stubs.o(.constdata) for __stdin_name
    stubs.o(.constdata) refers (Special) to use_no_semi.o(.text) for __use_no_semihosting_swi
    time.o(.text) refers to device.o(.text) for rt_device_find
    llsdiv.o(.text) refers to lludivv7m.o(.text) for __aeabi_uldivmod
    __2snprintf.o(.text) refers to _printf_char_common.o(.text) for _printf_char_common
    __2snprintf.o(.text) refers to _sputc.o(.text) for _sputc
    __2snprintf.o(.text) refers to _snputc.o(.text) for _snputc
    noretval__2snprintf.o(.text) refers to _printf_char_common.o(.text) for _printf_char_common
    noretval__2snprintf.o(.text) refers to _sputc.o(.text) for _sputc
    noretval__2snprintf.o(.text) refers to _snputc.o(.text) for _snputc
    __printf.o(.text) refers to _printf_percent.o(.ARM.Collect$$_printf_percent$$00000000) for _printf_percent
    _printf_str.o(.text) refers (Special) to _printf_char.o(.text) for _printf_cs_common
    __printf_flags.o(.text) refers to _printf_percent.o(.ARM.Collect$$_printf_percent$$00000000) for _printf_percent
    __printf_flags.o(.text) refers to __printf_flags.o(.constdata) for .constdata
    __printf_ss.o(.text) refers to _printf_percent.o(.ARM.Collect$$_printf_percent$$00000000) for _printf_percent
    __printf_flags_ss.o(.text) refers to _printf_percent.o(.ARM.Collect$$_printf_percent$$00000000) for _printf_percent
    __printf_flags_ss.o(.text) refers to __printf_flags_ss.o(.constdata) for .constdata
    __printf_wp.o(.text) refers to __printf_wp.o(i._is_digit) for _is_digit
    __printf_wp.o(.text) refers to _printf_percent.o(.ARM.Collect$$_printf_percent$$00000000) for _printf_percent
    __printf_flags_wp.o(.text) refers to __printf_wp.o(i._is_digit) for _is_digit
    __printf_flags_wp.o(.text) refers to _printf_percent.o(.ARM.Collect$$_printf_percent$$00000000) for _printf_percent
    __printf_flags_wp.o(.text) refers to __printf_flags_wp.o(.constdata) for .constdata
    __printf_ss_wp.o(.text) refers to __printf_wp.o(i._is_digit) for _is_digit
    __printf_ss_wp.o(.text) refers to _printf_percent.o(.ARM.Collect$$_printf_percent$$00000000) for _printf_percent
    __printf_flags_ss_wp.o(.text) refers to __printf_wp.o(i._is_digit) for _is_digit
    __printf_flags_ss_wp.o(.text) refers to _printf_percent.o(.ARM.Collect$$_printf_percent$$00000000) for _printf_percent
    __printf_flags_ss_wp.o(.text) refers to __printf_flags_ss_wp.o(.constdata) for .constdata
    _printf_s.o(.ARM.Collect$$_printf_percent$$00000014) refers (Weak) to _printf_char.o(.text) for _printf_string
    _printf_percent.o(.ARM.Collect$$_printf_percent$$00000000) refers (Special) to _printf_percent_end.o(.ARM.Collect$$_printf_percent$$00000017) for _printf_percent_end
    fread.o(.text) refers to fgetc.o(i.fgetc) for fgetc
    fwrite.o(.text) refers to fputc.o(i.fputc) for fputc
    getc.o(.text) refers to fgetc.o(i.fgetc) for fgetc
    fopen.o(.text) refers to fclose.o(.text) for _fclose_internal
    fopen.o(.text) refers to stubs.o(.text) for _sys_open
    fopen.o(.text) refers to fseek.o(.text) for _fseek
    fopen.o(.text) refers to mem_std.o(.text) for malloc
    fopen.o(.text) refers to rt_memclr_w.o(.text) for __aeabi_memclr4
    fopen.o(.text) refers to stdio_streams.o(.bss) for __stdin
    stdio_streams.o(.bss) refers (Special) to initio.o(.text) for _initio
    stdio_streams.o(.bss) refers (Special) to initio.o(.text) for _initio
    stdio_streams.o(.bss) refers (Special) to initio.o(.text) for _initio
    stdio_streams.o(.data) refers (Special) to initio.o(.text) for _initio
    stdio_streams.o(.data) refers (Special) to initio.o(.text) for _initio
    stdio_streams.o(.data) refers (Special) to initio.o(.text) for _initio
    fclose.o(.text) refers to stdio.o(.text) for _fflush
    fclose.o(.text) refers to stubs.o(.text) for _sys_close
    fclose.o(.text) refers to mem_std.o(.text) for free
    fclose.o(.text) refers to rt_memclr_w.o(.text) for __aeabi_memclr4
    fclose_locked.o(.text) refers to fclose.o(.text) for _fclose_internal
    fclose_locked.o(.text) refers to streamlock.o(.data) for _stream_list_lock
    fopen_locked.o(.text) refers to fclose.o(.text) for _fclose_internal
    fopen_locked.o(.text) refers to stubs.o(.text) for _sys_open
    fopen_locked.o(.text) refers to fseek.o(.text) for _fseek
    fopen_locked.o(.text) refers to mem_std.o(.text) for malloc
    fopen_locked.o(.text) refers to rt_memclr_w.o(.text) for __aeabi_memclr4
    fopen_locked.o(.text) refers to streamlock.o(.data) for _stream_list_lock
    fopen_locked.o(.text) refers to stdio_streams.o(.bss) for __stdin
    rt_memcpy_v6.o(.text) refers to rt_memcpy_w.o(.text) for __aeabi_memcpy4
    rt_memclr.o(.text) refers to rt_memclr_w.o(.text) for _memset_w
    strncpy.o(.text) refers to rt_memclr.o(.text) for __aeabi_memclr
    __main.o(!!!main) refers to __rtentry.o(.ARM.Collect$$rtentry$$00000000) for __rt_entry
    __rtentry.o(.ARM.Collect$$rtentry$$00000000) refers (Special) to __rtentry2.o(.ARM.Collect$$rtentry$$0000000A) for __rt_entry_li
    __rtentry.o(.ARM.Collect$$rtentry$$00000000) refers (Special) to __rtentry2.o(.ARM.Collect$$rtentry$$0000000D) for __rt_entry_main
    __rtentry.o(.ARM.Collect$$rtentry$$00000000) refers (Special) to __rtentry2.o(.ARM.Collect$$rtentry$$0000000C) for __rt_entry_postli_1
    __rtentry.o(.ARM.Collect$$rtentry$$00000000) refers (Special) to __rtentry2.o(.ARM.Collect$$rtentry$$00000009) for __rt_entry_postsh_1
    __rtentry.o(.ARM.Collect$$rtentry$$00000000) refers (Special) to __rtentry2.o(.ARM.Collect$$rtentry$$00000002) for __rt_entry_presh_1
    __rtentry.o(.ARM.Collect$$rtentry$$00000000) refers (Special) to __rtentry4.o(.ARM.Collect$$rtentry$$00000004) for __rt_entry_sh
    aeabi_ldiv0_sigfpe.o(.text) refers to rt_div0.o(.text) for __rt_div0
    _printf_char_common.o(.text) refers to __printf.o(.text) for __printf
    _printf_char.o(.text) refers (Weak) to _printf_str.o(.text) for _printf_str
    fgetc.o(i.fgetc) refers to filbuf.o(.text) for __filbuf_byte
    fputc.o(i.fputc) refers to flsbuf.o(.text) for __flsbuf_byte
    fseek.o(.text) refers to stubs.o(.text) for _sys_istty
    fseek.o(.text) refers to ftell.o(.text) for _ftell_internal
    fseek.o(.text) refers to stdio.o(.text) for _seterr
    stdio.o(.text) refers to stubs.o(.text) for _sys_seek
    streamlock.o(.data) refers (Special) to initio.o(.text) for _initio
    initio.o(.text) refers (Special) to libinit2.o(.ARM.Collect$$libinit$$00000024) for __rt_lib_init_stdio_2
    initio.o(.text) refers (Special) to libshutdown2.o(.ARM.Collect$$libshutdown$$00000003) for __rt_lib_shutdown_stdio_2
    initio.o(.text) refers to rt_memclr_w.o(.text) for __aeabi_memclr4
    initio.o(.text) refers to fopen.o(.text) for freopen
    initio.o(.text) refers to defsig_rtred_outer.o(.text) for __rt_SIGRTRED
    initio.o(.text) refers to setvbuf.o(.text) for setvbuf
    initio.o(.text) refers to fclose.o(.text) for _fclose_internal
    initio.o(.text) refers to mem_std.o(.text) for free
    initio.o(.text) refers to stdio_streams.o(.bss) for __stdin
    initio.o(.text) refers to stdio_streams.o(.bss) for __stdout
    initio.o(.text) refers to stdio_streams.o(.bss) for __stderr
    initio.o(.text) refers to stdio_streams.o(.data) for __aeabi_stdin
    initio.o(.text) refers to stdio_streams.o(.data) for __aeabi_stdout
    initio.o(.text) refers to stdio_streams.o(.data) for __aeabi_stderr
    initio.o(.text) refers to stubs.o(.constdata) for __stdin_name
    initio_locked.o(.text) refers (Special) to libinit2.o(.ARM.Collect$$libinit$$00000024) for __rt_lib_init_stdio_2
    initio_locked.o(.text) refers (Special) to libshutdown2.o(.ARM.Collect$$libshutdown$$00000003) for __rt_lib_shutdown_stdio_2
    initio_locked.o(.text) refers to rt_memclr_w.o(.text) for __aeabi_memclr4
    initio_locked.o(.text) refers to fopen.o(.text) for freopen
    initio_locked.o(.text) refers to defsig_rtred_outer.o(.text) for __rt_SIGRTRED
    initio_locked.o(.text) refers to setvbuf.o(.text) for setvbuf
    initio_locked.o(.text) refers to fclose.o(.text) for _fclose_internal
    initio_locked.o(.text) refers to mem_std.o(.text) for free
    initio_locked.o(.text) refers to stdio_streams.o(.bss) for __stdin
    initio_locked.o(.text) refers to stdio_streams.o(.bss) for __stdout
    initio_locked.o(.text) refers to stdio_streams.o(.bss) for __stderr
    initio_locked.o(.text) refers to stdio_streams.o(.data) for __aeabi_stdin
    initio_locked.o(.text) refers to stdio_streams.o(.data) for __aeabi_stdout
    initio_locked.o(.text) refers to stdio_streams.o(.data) for __aeabi_stderr
    initio_locked.o(.text) refers to streamlock.o(.data) for _stream_list_lock
    initio_locked.o(.text) refers to stubs.o(.constdata) for __stdin_name
    __rtentry2.o(.ARM.Collect$$rtentry$$00000008) refers to boardinit2.o(.text) for _platform_post_stackheap_init
    __rtentry2.o(.ARM.Collect$$rtentry$$0000000A) refers to libinit.o(.ARM.Collect$$libinit$$00000000) for __rt_lib_init
    __rtentry2.o(.ARM.Collect$$rtentry$$0000000B) refers to boardinit3.o(.text) for _platform_post_lib_init
    __rtentry2.o(.ARM.Collect$$rtentry$$0000000D) refers to components.o(.text) for main
    __rtentry2.o(.ARM.Collect$$rtentry$$0000000D) refers to exit.o(.text) for exit
    __rtentry2.o(.ARM.exidx) refers to __rtentry2.o(.ARM.Collect$$rtentry$$00000001) for .ARM.Collect$$rtentry$$00000001
    __rtentry2.o(.ARM.exidx) refers to __rtentry2.o(.ARM.Collect$$rtentry$$00000008) for .ARM.Collect$$rtentry$$00000008
    __rtentry2.o(.ARM.exidx) refers to __rtentry2.o(.ARM.Collect$$rtentry$$0000000A) for .ARM.Collect$$rtentry$$0000000A
    __rtentry2.o(.ARM.exidx) refers to __rtentry2.o(.ARM.Collect$$rtentry$$0000000B) for .ARM.Collect$$rtentry$$0000000B
    __rtentry2.o(.ARM.exidx) refers to __rtentry2.o(.ARM.Collect$$rtentry$$0000000D) for .ARM.Collect$$rtentry$$0000000D
    __rtentry4.o(.ARM.Collect$$rtentry$$00000004) refers to sys_stackheap_outer.o(.text) for __user_setup_stackheap
    __rtentry4.o(.ARM.exidx) refers to __rtentry4.o(.ARM.Collect$$rtentry$$00000004) for .ARM.Collect$$rtentry$$00000004
    rt_div0.o(.text) refers to defsig_fpe_outer.o(.text) for __rt_SIGFPE
    filbuf.o(.text) refers to stubs.o(.text) for _sys_read
    filbuf.o(.text) refers to stdio.o(.text) for _seterr
    filbuf.o(.text) refers to mem_std.o(.text) for malloc
    filbuf.o(.text) refers to flushlinebuffered.o(.text) for _flushlinebuffered
    flsbuf.o(.text) refers to stdio.o(.text) for _deferredlazyseek
    flsbuf.o(.text) refers to stubs.o(.text) for _sys_flen
    flsbuf.o(.text) refers to mem_std.o(.text) for malloc
    ftell.o(.text) refers to rt_errno_addr_intlibspace.o(.text) for __aeabi_errno_addr
    defsig_rtred_outer.o(.text) refers to defsig_rtred_inner.o(.text) for __rt_SIGRTRED_inner
    defsig_rtred_outer.o(.text) refers to defsig_exit.o(.text) for __sig_exit
    defsig_rtred_formal.o(.text) refers to rt_raise.o(.text) for __rt_raise
    libinit2.o(.ARM.Collect$$libinit$$00000001) refers to fpinit.o(x$fpl$fpinit) for _fp_init
    libinit2.o(.ARM.Collect$$libinit$$00000010) refers to libinit2.o(.ARM.Collect$$libinit$$0000000F) for .ARM.Collect$$libinit$$0000000F
    libinit2.o(.ARM.Collect$$libinit$$00000012) refers to libinit2.o(.ARM.Collect$$libinit$$0000000F) for .ARM.Collect$$libinit$$0000000F
    libinit2.o(.ARM.Collect$$libinit$$00000014) refers to libinit2.o(.ARM.Collect$$libinit$$0000000F) for .ARM.Collect$$libinit$$0000000F
    libinit2.o(.ARM.Collect$$libinit$$00000016) refers to libinit2.o(.ARM.Collect$$libinit$$0000000F) for .ARM.Collect$$libinit$$0000000F
    libinit2.o(.ARM.Collect$$libinit$$00000018) refers to libinit2.o(.ARM.Collect$$libinit$$0000000F) for .ARM.Collect$$libinit$$0000000F
    libinit2.o(.ARM.Collect$$libinit$$00000024) refers (Weak) to initio.o(.text) for _initio
    libinit2.o(.ARM.Collect$$libinit$$00000026) refers to argv_veneer.o(.emb_text) for __ARM_argv_veneer
    libinit2.o(.ARM.Collect$$libinit$$00000027) refers to argv_veneer.o(.emb_text) for __ARM_argv_veneer
    libshutdown2.o(.ARM.Collect$$libshutdown$$00000003) refers (Weak) to initio.o(.text) for _terminateio
    filbuf_fwide.o(.text) refers to filbuf.o(.text) for __filbuf
    flsbuf_fwide.o(.text) refers to flsbuf.o(.text) for __flsbuf
    sys_stackheap_outer.o(.text) refers to libspace.o(.text) for __user_perproc_libspace
    sys_stackheap_outer.o(.text) refers to startup_stm32f412zx.o(.text) for __user_initial_stackheap
    rt_raise.o(.text) refers to __raise.o(.text) for __raise
    rt_raise.o(.text) refers to stubs.o(.text) for _sys_exit
    rt_errno_addr.o(.text) refers to rt_errno_addr.o(.bss) for __aeabi_errno_addr_data
    rt_errno_addr_intlibspace.o(.text) refers to libspace.o(.bss) for __libspace_start
    freadfast.o(.text) refers to filbuf.o(.text) for _readbuf
    freadfast.o(.text) refers to rt_memcpy_v6.o(.text) for __aeabi_memcpy
    fread_bytes_avail.o(.text) refers to filbuf.o(.text) for __filbuf_byte
    fread_bytes_avail.o(.text) refers to rt_memcpy_v6.o(.text) for __aeabi_memcpy
    fwritefast.o(.text) refers to stdio.o(.text) for _writebuf
    fwritefast.o(.text) refers to flsbuf.o(.text) for __flsbuf_byte
    fwritefast.o(.text) refers to rt_memcpy_v6.o(.text) for __aeabi_memcpy
    flushlinebuffered.o(.text) refers to fflush.o(.text) for _do_fflush
    flushlinebuffered.o(.text) refers to stdio_streams.o(.bss) for __stdin
    freadfast_locked.o(.text) refers to filbuf.o(.text) for _readbuf
    freadfast_locked.o(.text) refers to rt_memcpy_v6.o(.text) for __aeabi_memcpy
    fread_bytes_avail_locked.o(.text) refers to filbuf.o(.text) for __filbuf_byte
    fread_bytes_avail_locked.o(.text) refers to rt_memcpy_v6.o(.text) for __aeabi_memcpy
    fwritefast_locked.o(.text) refers to stdio.o(.text) for _writebuf
    fwritefast_locked.o(.text) refers to flsbuf.o(.text) for __flsbuf_byte
    fwritefast_locked.o(.text) refers to rt_memcpy_v6.o(.text) for __aeabi_memcpy
    flushlinebuffered_locked.o(.text) refers to fflush.o(.text) for _do_fflush
    flushlinebuffered_locked.o(.text) refers to streamlock.o(.data) for _stream_list_lock
    flushlinebuffered_locked.o(.text) refers to stdio_streams.o(.bss) for __stdin
    exit.o(.text) refers to rtexit.o(.ARM.Collect$$rtexit$$00000000) for __rt_exit
    defsig_exit.o(.text) refers to stubs.o(.text) for _sys_exit
    defsig_fpe_outer.o(.text) refers to defsig_fpe_inner.o(.text) for __rt_SIGFPE_inner
    defsig_fpe_outer.o(.text) refers to defsig_exit.o(.text) for __sig_exit
    defsig_fpe_formal.o(.text) refers to rt_raise.o(.text) for __rt_raise
    defsig_rtred_inner.o(.text) refers to defsig_general.o(.text) for __default_signal_display
    assert_stdio.o(.text) refers to fputs.o(.text) for fputs
    assert_stdio.o(.text) refers to fflush.o(.text) for fflush
    assert_stdio.o(.text) refers to stdio_streams.o(.bss) for __stderr
    argv_veneer.o(.emb_text) refers to no_argv.o(.text) for __ARM_get_argv
    libinit.o(.ARM.Collect$$libinit$$00000000) refers (Special) to libinit2.o(.ARM.Collect$$libinit$$0000002E) for __rt_lib_init_alloca_1
    libinit.o(.ARM.Collect$$libinit$$00000000) refers (Special) to libinit2.o(.ARM.Collect$$libinit$$0000002C) for __rt_lib_init_argv_1
    libinit.o(.ARM.Collect$$libinit$$00000000) refers (Special) to libinit2.o(.ARM.Collect$$libinit$$0000001B) for __rt_lib_init_atexit_1
    libinit.o(.ARM.Collect$$libinit$$00000000) refers (Special) to libinit2.o(.ARM.Collect$$libinit$$00000021) for __rt_lib_init_clock_1
    libinit.o(.ARM.Collect$$libinit$$00000000) refers (Special) to libinit2.o(.ARM.Collect$$libinit$$00000032) for __rt_lib_init_cpp_1
    libinit.o(.ARM.Collect$$libinit$$00000000) refers (Special) to libinit2.o(.ARM.Collect$$libinit$$00000030) for __rt_lib_init_exceptions_1
    libinit.o(.ARM.Collect$$libinit$$00000000) refers (Special) to libinit2.o(.ARM.Collect$$libinit$$00000001) for __rt_lib_init_fp_1
    libinit.o(.ARM.Collect$$libinit$$00000000) refers (Special) to libinit2.o(.ARM.Collect$$libinit$$0000001F) for __rt_lib_init_fp_trap_1
    libinit.o(.ARM.Collect$$libinit$$00000000) refers (Special) to libinit2.o(.ARM.Collect$$libinit$$00000023) for __rt_lib_init_getenv_1
    libinit.o(.ARM.Collect$$libinit$$00000000) refers (Special) to libinit2.o(.ARM.Collect$$libinit$$0000000A) for __rt_lib_init_heap_1
    libinit.o(.ARM.Collect$$libinit$$00000000) refers (Special) to libinit2.o(.ARM.Collect$$libinit$$00000011) for __rt_lib_init_lc_collate_1
    libinit.o(.ARM.Collect$$libinit$$00000000) refers (Special) to libinit2.o(.ARM.Collect$$libinit$$00000013) for __rt_lib_init_lc_ctype_1
    libinit.o(.ARM.Collect$$libinit$$00000000) refers (Special) to libinit2.o(.ARM.Collect$$libinit$$00000015) for __rt_lib_init_lc_monetary_1
    libinit.o(.ARM.Collect$$libinit$$00000000) refers (Special) to libinit2.o(.ARM.Collect$$libinit$$00000017) for __rt_lib_init_lc_numeric_1
    libinit.o(.ARM.Collect$$libinit$$00000000) refers (Special) to libinit2.o(.ARM.Collect$$libinit$$00000019) for __rt_lib_init_lc_time_1
    libinit.o(.ARM.Collect$$libinit$$00000000) refers (Special) to libinit2.o(.ARM.Collect$$libinit$$00000004) for __rt_lib_init_preinit_1
    libinit.o(.ARM.Collect$$libinit$$00000000) refers (Special) to libinit2.o(.ARM.Collect$$libinit$$0000000E) for __rt_lib_init_rand_1
    libinit.o(.ARM.Collect$$libinit$$00000000) refers (Special) to libinit2.o(.ARM.Collect$$libinit$$00000033) for __rt_lib_init_return
    libinit.o(.ARM.Collect$$libinit$$00000000) refers (Special) to libinit2.o(.ARM.Collect$$libinit$$0000001D) for __rt_lib_init_signal_1
    libinit.o(.ARM.Collect$$libinit$$00000000) refers (Special) to libinit2.o(.ARM.Collect$$libinit$$00000025) for __rt_lib_init_stdio_1
    libinit.o(.ARM.Collect$$libinit$$00000000) refers (Special) to libinit2.o(.ARM.Collect$$libinit$$0000000C) for __rt_lib_init_user_alloc_1
    libspace.o(.text) refers to libspace.o(.bss) for __libspace_start
    rtexit.o(.ARM.Collect$$rtexit$$00000000) refers (Special) to rtexit2.o(.ARM.Collect$$rtexit$$00000004) for __rt_exit_exit
    rtexit.o(.ARM.Collect$$rtexit$$00000000) refers (Special) to rtexit2.o(.ARM.Collect$$rtexit$$00000003) for __rt_exit_ls
    rtexit.o(.ARM.Collect$$rtexit$$00000000) refers (Special) to rtexit2.o(.ARM.Collect$$rtexit$$00000002) for __rt_exit_prels_1
    rtexit.o(.ARM.exidx) refers (Special) to rtexit2.o(.ARM.Collect$$rtexit$$00000004) for __rt_exit_exit
    rtexit.o(.ARM.exidx) refers (Special) to rtexit2.o(.ARM.Collect$$rtexit$$00000003) for __rt_exit_ls
    rtexit.o(.ARM.exidx) refers (Special) to rtexit2.o(.ARM.Collect$$rtexit$$00000002) for __rt_exit_prels_1
    rtexit.o(.ARM.exidx) refers to rtexit.o(.ARM.Collect$$rtexit$$00000000) for .ARM.Collect$$rtexit$$00000000
    fflush.o(.text) refers to stdio.o(.text) for _fflush
    fflush.o(.text) refers to fseek.o(.text) for _fseek
    fflush.o(.text) refers to stdio_streams.o(.bss) for __stdin
    fputs.o(.text) refers to fputc.o(i.fputc) for fputc
    fflush_locked.o(.text) refers to stdio.o(.text) for _fflush
    fflush_locked.o(.text) refers to fseek.o(.text) for _fseek
    fflush_locked.o(.text) refers to fflush.o(.text) for _do_fflush
    fflush_locked.o(.text) refers to streamlock.o(.data) for _stream_list_lock
    fflush_locked.o(.text) refers to stdio_streams.o(.bss) for __stdin
    __raise.o(.text) refers to defsig.o(CL$$defsig) for __default_signal_handler
    defsig_general.o(.text) refers to stubs.o(.text) for _ttywrch
    defsig_fpe_inner.o(.text) refers to defsig_general.o(.text) for __default_signal_display
    _get_argv_nomalloc.o(.text) refers (Special) to hrguard.o(.text) for __heap_region$guard
    _get_argv_nomalloc.o(.text) refers to defsig_rtmem_outer.o(.text) for __rt_SIGRTMEM
    _get_argv_nomalloc.o(.text) refers to stubs.o(.text) for _sys_command_string
    rtexit2.o(.ARM.Collect$$rtexit$$00000003) refers to libshutdown.o(.ARM.Collect$$libshutdown$$00000000) for __rt_lib_shutdown
    rtexit2.o(.ARM.Collect$$rtexit$$00000004) refers to stubs.o(.text) for _sys_exit
    rtexit2.o(.ARM.exidx) refers to rtexit2.o(.ARM.Collect$$rtexit$$00000001) for .ARM.Collect$$rtexit$$00000001
    rtexit2.o(.ARM.exidx) refers to rtexit2.o(.ARM.Collect$$rtexit$$00000003) for .ARM.Collect$$rtexit$$00000003
    rtexit2.o(.ARM.exidx) refers to rtexit2.o(.ARM.Collect$$rtexit$$00000004) for .ARM.Collect$$rtexit$$00000004
    defsig_rtmem_outer.o(.text) refers to defsig_rtmem_inner.o(.text) for __rt_SIGRTMEM_inner
    defsig_rtmem_outer.o(.text) refers to defsig_exit.o(.text) for __sig_exit
    defsig_rtmem_formal.o(.text) refers to rt_raise.o(.text) for __rt_raise
    defsig.o(CL$$defsig) refers to defsig_fpe_inner.o(.text) for __rt_SIGFPE_inner
    defsig.o(CL$$defsig) refers to defsig_rtred_inner.o(.text) for __rt_SIGRTRED_inner
    defsig.o(CL$$defsig) refers to defsig_rtmem_inner.o(.text) for __rt_SIGRTMEM_inner
    defsig_abrt_inner.o(.text) refers to defsig_general.o(.text) for __default_signal_display
    defsig_rtmem_inner.o(.text) refers to defsig_general.o(.text) for __default_signal_display
    defsig_stak_inner.o(.text) refers to defsig_general.o(.text) for __default_signal_display
    defsig_pvfn_inner.o(.text) refers to defsig_general.o(.text) for __default_signal_display
    defsig_cppl_inner.o(.text) refers to defsig_general.o(.text) for __default_signal_display
    defsig_segv_inner.o(.text) refers to defsig_general.o(.text) for __default_signal_display
    defsig_other.o(.text) refers to defsig_general.o(.text) for __default_signal_display
    libshutdown.o(.ARM.Collect$$libshutdown$$00000000) refers (Special) to libshutdown2.o(.ARM.Collect$$libshutdown$$00000002) for __rt_lib_shutdown_cpp_1
    libshutdown.o(.ARM.Collect$$libshutdown$$00000000) refers (Special) to libshutdown2.o(.ARM.Collect$$libshutdown$$00000007) for __rt_lib_shutdown_fp_trap_1
    libshutdown.o(.ARM.Collect$$libshutdown$$00000000) refers (Special) to libshutdown2.o(.ARM.Collect$$libshutdown$$0000000F) for __rt_lib_shutdown_heap_1
    libshutdown.o(.ARM.Collect$$libshutdown$$00000000) refers (Special) to libshutdown2.o(.ARM.Collect$$libshutdown$$00000010) for __rt_lib_shutdown_return
    libshutdown.o(.ARM.Collect$$libshutdown$$00000000) refers (Special) to libshutdown2.o(.ARM.Collect$$libshutdown$$0000000A) for __rt_lib_shutdown_signal_1
    libshutdown.o(.ARM.Collect$$libshutdown$$00000000) refers (Special) to libshutdown2.o(.ARM.Collect$$libshutdown$$00000004) for __rt_lib_shutdown_stdio_1
    libshutdown.o(.ARM.Collect$$libshutdown$$00000000) refers (Special) to libshutdown2.o(.ARM.Collect$$libshutdown$$0000000C) for __rt_lib_shutdown_user_alloc_1


==============================================================================

Removing Unused input sections from the image.

    Removing main.o(.rev16_text), (4 bytes).
    Removing main.o(.revsh_text), (4 bytes).
    Removing main.o(.rrx_text), (6 bytes).
    Removing usb_winusb.o(.rev16_text), (4 bytes).
    Removing usb_winusb.o(.revsh_text), (4 bytes).
    Removing usb_winusb.o(.rrx_text), (6 bytes).
    Removing board.o(.rev16_text), (4 bytes).
    Removing board.o(.revsh_text), (4 bytes).
    Removing board.o(.rrx_text), (6 bytes).
    Removing stm32f4xx_it.o(.rev16_text), (4 bytes).
    Removing stm32f4xx_it.o(.revsh_text), (4 bytes).
    Removing stm32f4xx_it.o(.rrx_text), (6 bytes).
    Removing drv_gpio.o(.rev16_text), (4 bytes).
    Removing drv_gpio.o(.revsh_text), (4 bytes).
    Removing drv_gpio.o(.rrx_text), (6 bytes).
    Removing drv_usart.o(.rev16_text), (4 bytes).
    Removing drv_usart.o(.revsh_text), (4 bytes).
    Removing drv_usart.o(.rrx_text), (6 bytes).
    Removing drv_usbd.o(.rev16_text), (4 bytes).
    Removing drv_usbd.o(.revsh_text), (4 bytes).
    Removing drv_usbd.o(.rrx_text), (6 bytes).
    Removing system_stm32f4xx.o(.rev16_text), (4 bytes).
    Removing system_stm32f4xx.o(.revsh_text), (4 bytes).
    Removing system_stm32f4xx.o(.rrx_text), (6 bytes).
    Removing stm32f4xx_hal.o(.rev16_text), (4 bytes).
    Removing stm32f4xx_hal.o(.revsh_text), (4 bytes).
    Removing stm32f4xx_hal.o(.rrx_text), (6 bytes).
    Removing stm32f4xx_hal_adc.o(.rev16_text), (4 bytes).
    Removing stm32f4xx_hal_adc.o(.revsh_text), (4 bytes).
    Removing stm32f4xx_hal_adc.o(.rrx_text), (6 bytes).
    Removing stm32f4xx_hal_adc_ex.o(.rev16_text), (4 bytes).
    Removing stm32f4xx_hal_adc_ex.o(.revsh_text), (4 bytes).
    Removing stm32f4xx_hal_adc_ex.o(.rrx_text), (6 bytes).
    Removing stm32f4xx_hal_can.o(.rev16_text), (4 bytes).
    Removing stm32f4xx_hal_can.o(.revsh_text), (4 bytes).
    Removing stm32f4xx_hal_can.o(.rrx_text), (6 bytes).
    Removing stm32f4xx_hal_cec.o(.rev16_text), (4 bytes).
    Removing stm32f4xx_hal_cec.o(.revsh_text), (4 bytes).
    Removing stm32f4xx_hal_cec.o(.rrx_text), (6 bytes).
    Removing stm32f4xx_hal_cortex.o(.rev16_text), (4 bytes).
    Removing stm32f4xx_hal_cortex.o(.revsh_text), (4 bytes).
    Removing stm32f4xx_hal_cortex.o(.rrx_text), (6 bytes).
    Removing stm32f4xx_hal_crc.o(.rev16_text), (4 bytes).
    Removing stm32f4xx_hal_crc.o(.revsh_text), (4 bytes).
    Removing stm32f4xx_hal_crc.o(.rrx_text), (6 bytes).
    Removing stm32f4xx_hal_cryp.o(.rev16_text), (4 bytes).
    Removing stm32f4xx_hal_cryp.o(.revsh_text), (4 bytes).
    Removing stm32f4xx_hal_cryp.o(.rrx_text), (6 bytes).
    Removing stm32f4xx_hal_cryp_ex.o(.rev16_text), (4 bytes).
    Removing stm32f4xx_hal_cryp_ex.o(.revsh_text), (4 bytes).
    Removing stm32f4xx_hal_cryp_ex.o(.rrx_text), (6 bytes).
    Removing stm32f4xx_hal_dac.o(.rev16_text), (4 bytes).
    Removing stm32f4xx_hal_dac.o(.revsh_text), (4 bytes).
    Removing stm32f4xx_hal_dac.o(.rrx_text), (6 bytes).
    Removing stm32f4xx_hal_dac_ex.o(.rev16_text), (4 bytes).
    Removing stm32f4xx_hal_dac_ex.o(.revsh_text), (4 bytes).
    Removing stm32f4xx_hal_dac_ex.o(.rrx_text), (6 bytes).
    Removing stm32f4xx_hal_dcmi.o(.rev16_text), (4 bytes).
    Removing stm32f4xx_hal_dcmi.o(.revsh_text), (4 bytes).
    Removing stm32f4xx_hal_dcmi.o(.rrx_text), (6 bytes).
    Removing stm32f4xx_hal_dcmi_ex.o(.rev16_text), (4 bytes).
    Removing stm32f4xx_hal_dcmi_ex.o(.revsh_text), (4 bytes).
    Removing stm32f4xx_hal_dcmi_ex.o(.rrx_text), (6 bytes).
    Removing stm32f4xx_hal_dfsdm.o(.rev16_text), (4 bytes).
    Removing stm32f4xx_hal_dfsdm.o(.revsh_text), (4 bytes).
    Removing stm32f4xx_hal_dfsdm.o(.rrx_text), (6 bytes).
    Removing stm32f4xx_hal_dma.o(.rev16_text), (4 bytes).
    Removing stm32f4xx_hal_dma.o(.revsh_text), (4 bytes).
    Removing stm32f4xx_hal_dma.o(.rrx_text), (6 bytes).
    Removing stm32f4xx_hal_dma2d.o(.rev16_text), (4 bytes).
    Removing stm32f4xx_hal_dma2d.o(.revsh_text), (4 bytes).
    Removing stm32f4xx_hal_dma2d.o(.rrx_text), (6 bytes).
    Removing stm32f4xx_hal_dma_ex.o(.rev16_text), (4 bytes).
    Removing stm32f4xx_hal_dma_ex.o(.revsh_text), (4 bytes).
    Removing stm32f4xx_hal_dma_ex.o(.rrx_text), (6 bytes).
    Removing stm32f4xx_hal_dma_ex.o(.text), (4232 bytes).
    Removing stm32f4xx_hal_dsi.o(.rev16_text), (4 bytes).
    Removing stm32f4xx_hal_dsi.o(.revsh_text), (4 bytes).
    Removing stm32f4xx_hal_dsi.o(.rrx_text), (6 bytes).
    Removing stm32f4xx_hal_eth.o(.rev16_text), (4 bytes).
    Removing stm32f4xx_hal_eth.o(.revsh_text), (4 bytes).
    Removing stm32f4xx_hal_eth.o(.rrx_text), (6 bytes).
    Removing stm32f4xx_hal_flash.o(.rev16_text), (4 bytes).
    Removing stm32f4xx_hal_flash.o(.revsh_text), (4 bytes).
    Removing stm32f4xx_hal_flash.o(.rrx_text), (6 bytes).
    Removing stm32f4xx_hal_flash.o(.text), (1144 bytes).
    Removing stm32f4xx_hal_flash.o(.bss), (32 bytes).
    Removing stm32f4xx_hal_flash_ex.o(.rev16_text), (4 bytes).
    Removing stm32f4xx_hal_flash_ex.o(.revsh_text), (4 bytes).
    Removing stm32f4xx_hal_flash_ex.o(.rrx_text), (6 bytes).
    Removing stm32f4xx_hal_flash_ex.o(.text), (1160 bytes).
    Removing stm32f4xx_hal_flash_ramfunc.o(.rev16_text), (4 bytes).
    Removing stm32f4xx_hal_flash_ramfunc.o(.revsh_text), (4 bytes).
    Removing stm32f4xx_hal_flash_ramfunc.o(.rrx_text), (6 bytes).
    Removing stm32f4xx_hal_flash_ramfunc.o(.text), (208 bytes).
    Removing stm32f4xx_hal_fmpi2c.o(.rev16_text), (4 bytes).
    Removing stm32f4xx_hal_fmpi2c.o(.revsh_text), (4 bytes).
    Removing stm32f4xx_hal_fmpi2c.o(.rrx_text), (6 bytes).
    Removing stm32f4xx_hal_fmpi2c_ex.o(.rev16_text), (4 bytes).
    Removing stm32f4xx_hal_fmpi2c_ex.o(.revsh_text), (4 bytes).
    Removing stm32f4xx_hal_fmpi2c_ex.o(.rrx_text), (6 bytes).
    Removing stm32f4xx_hal_gpio.o(.rev16_text), (4 bytes).
    Removing stm32f4xx_hal_gpio.o(.revsh_text), (4 bytes).
    Removing stm32f4xx_hal_gpio.o(.rrx_text), (6 bytes).
    Removing stm32f4xx_hal_hash.o(.rev16_text), (4 bytes).
    Removing stm32f4xx_hal_hash.o(.revsh_text), (4 bytes).
    Removing stm32f4xx_hal_hash.o(.rrx_text), (6 bytes).
    Removing stm32f4xx_hal_hash_ex.o(.rev16_text), (4 bytes).
    Removing stm32f4xx_hal_hash_ex.o(.revsh_text), (4 bytes).
    Removing stm32f4xx_hal_hash_ex.o(.rrx_text), (6 bytes).
    Removing stm32f4xx_hal_hcd.o(.rev16_text), (4 bytes).
    Removing stm32f4xx_hal_hcd.o(.revsh_text), (4 bytes).
    Removing stm32f4xx_hal_hcd.o(.rrx_text), (6 bytes).
    Removing stm32f4xx_hal_i2c.o(.rev16_text), (4 bytes).
    Removing stm32f4xx_hal_i2c.o(.revsh_text), (4 bytes).
    Removing stm32f4xx_hal_i2c.o(.rrx_text), (6 bytes).
    Removing stm32f4xx_hal_i2c_ex.o(.rev16_text), (4 bytes).
    Removing stm32f4xx_hal_i2c_ex.o(.revsh_text), (4 bytes).
    Removing stm32f4xx_hal_i2c_ex.o(.rrx_text), (6 bytes).
    Removing stm32f4xx_hal_i2s.o(.rev16_text), (4 bytes).
    Removing stm32f4xx_hal_i2s.o(.revsh_text), (4 bytes).
    Removing stm32f4xx_hal_i2s.o(.rrx_text), (6 bytes).
    Removing stm32f4xx_hal_i2s_ex.o(.rev16_text), (4 bytes).
    Removing stm32f4xx_hal_i2s_ex.o(.revsh_text), (4 bytes).
    Removing stm32f4xx_hal_i2s_ex.o(.rrx_text), (6 bytes).
    Removing stm32f4xx_hal_irda.o(.rev16_text), (4 bytes).
    Removing stm32f4xx_hal_irda.o(.revsh_text), (4 bytes).
    Removing stm32f4xx_hal_irda.o(.rrx_text), (6 bytes).
    Removing stm32f4xx_hal_iwdg.o(.rev16_text), (4 bytes).
    Removing stm32f4xx_hal_iwdg.o(.revsh_text), (4 bytes).
    Removing stm32f4xx_hal_iwdg.o(.rrx_text), (6 bytes).
    Removing stm32f4xx_hal_iwdg.o(.text), (94 bytes).
    Removing stm32f4xx_hal_lptim.o(.rev16_text), (4 bytes).
    Removing stm32f4xx_hal_lptim.o(.revsh_text), (4 bytes).
    Removing stm32f4xx_hal_lptim.o(.rrx_text), (6 bytes).
    Removing stm32f4xx_hal_ltdc.o(.rev16_text), (4 bytes).
    Removing stm32f4xx_hal_ltdc.o(.revsh_text), (4 bytes).
    Removing stm32f4xx_hal_ltdc.o(.rrx_text), (6 bytes).
    Removing stm32f4xx_hal_ltdc_ex.o(.rev16_text), (4 bytes).
    Removing stm32f4xx_hal_ltdc_ex.o(.revsh_text), (4 bytes).
    Removing stm32f4xx_hal_ltdc_ex.o(.rrx_text), (6 bytes).
    Removing stm32f4xx_hal_mmc.o(.rev16_text), (4 bytes).
    Removing stm32f4xx_hal_mmc.o(.revsh_text), (4 bytes).
    Removing stm32f4xx_hal_mmc.o(.rrx_text), (6 bytes).
    Removing stm32f4xx_hal_nand.o(.rev16_text), (4 bytes).
    Removing stm32f4xx_hal_nand.o(.revsh_text), (4 bytes).
    Removing stm32f4xx_hal_nand.o(.rrx_text), (6 bytes).
    Removing stm32f4xx_hal_nor.o(.rev16_text), (4 bytes).
    Removing stm32f4xx_hal_nor.o(.revsh_text), (4 bytes).
    Removing stm32f4xx_hal_nor.o(.rrx_text), (6 bytes).
    Removing stm32f4xx_hal_pccard.o(.rev16_text), (4 bytes).
    Removing stm32f4xx_hal_pccard.o(.revsh_text), (4 bytes).
    Removing stm32f4xx_hal_pccard.o(.rrx_text), (6 bytes).
    Removing stm32f4xx_hal_pcd.o(.rev16_text), (4 bytes).
    Removing stm32f4xx_hal_pcd.o(.revsh_text), (4 bytes).
    Removing stm32f4xx_hal_pcd.o(.rrx_text), (6 bytes).
    Removing stm32f4xx_hal_pcd_ex.o(.rev16_text), (4 bytes).
    Removing stm32f4xx_hal_pcd_ex.o(.revsh_text), (4 bytes).
    Removing stm32f4xx_hal_pcd_ex.o(.rrx_text), (6 bytes).
    Removing stm32f4xx_hal_pwr.o(.rev16_text), (4 bytes).
    Removing stm32f4xx_hal_pwr.o(.revsh_text), (4 bytes).
    Removing stm32f4xx_hal_pwr.o(.rrx_text), (6 bytes).
    Removing stm32f4xx_hal_pwr.o(.text), (476 bytes).
    Removing stm32f4xx_hal_pwr_ex.o(.rev16_text), (4 bytes).
    Removing stm32f4xx_hal_pwr_ex.o(.revsh_text), (4 bytes).
    Removing stm32f4xx_hal_pwr_ex.o(.rrx_text), (6 bytes).
    Removing stm32f4xx_hal_pwr_ex.o(.text), (400 bytes).
    Removing stm32f4xx_hal_qspi.o(.rev16_text), (4 bytes).
    Removing stm32f4xx_hal_qspi.o(.revsh_text), (4 bytes).
    Removing stm32f4xx_hal_qspi.o(.rrx_text), (6 bytes).
    Removing stm32f4xx_hal_rcc.o(.rev16_text), (4 bytes).
    Removing stm32f4xx_hal_rcc.o(.revsh_text), (4 bytes).
    Removing stm32f4xx_hal_rcc.o(.rrx_text), (6 bytes).
    Removing stm32f4xx_hal_rcc_ex.o(.rev16_text), (4 bytes).
    Removing stm32f4xx_hal_rcc_ex.o(.revsh_text), (4 bytes).
    Removing stm32f4xx_hal_rcc_ex.o(.rrx_text), (6 bytes).
    Removing stm32f4xx_hal_rng.o(.rev16_text), (4 bytes).
    Removing stm32f4xx_hal_rng.o(.revsh_text), (4 bytes).
    Removing stm32f4xx_hal_rng.o(.rrx_text), (6 bytes).
    Removing stm32f4xx_hal_rtc.o(.rev16_text), (4 bytes).
    Removing stm32f4xx_hal_rtc.o(.revsh_text), (4 bytes).
    Removing stm32f4xx_hal_rtc.o(.rrx_text), (6 bytes).
    Removing stm32f4xx_hal_rtc_ex.o(.rev16_text), (4 bytes).
    Removing stm32f4xx_hal_rtc_ex.o(.revsh_text), (4 bytes).
    Removing stm32f4xx_hal_rtc_ex.o(.rrx_text), (6 bytes).
    Removing stm32f4xx_hal_sai.o(.rev16_text), (4 bytes).
    Removing stm32f4xx_hal_sai.o(.revsh_text), (4 bytes).
    Removing stm32f4xx_hal_sai.o(.rrx_text), (6 bytes).
    Removing stm32f4xx_hal_sai_ex.o(.rev16_text), (4 bytes).
    Removing stm32f4xx_hal_sai_ex.o(.revsh_text), (4 bytes).
    Removing stm32f4xx_hal_sai_ex.o(.rrx_text), (6 bytes).
    Removing stm32f4xx_hal_sd.o(.rev16_text), (4 bytes).
    Removing stm32f4xx_hal_sd.o(.revsh_text), (4 bytes).
    Removing stm32f4xx_hal_sd.o(.rrx_text), (6 bytes).
    Removing stm32f4xx_hal_sdram.o(.rev16_text), (4 bytes).
    Removing stm32f4xx_hal_sdram.o(.revsh_text), (4 bytes).
    Removing stm32f4xx_hal_sdram.o(.rrx_text), (6 bytes).
    Removing stm32f4xx_hal_smartcard.o(.rev16_text), (4 bytes).
    Removing stm32f4xx_hal_smartcard.o(.revsh_text), (4 bytes).
    Removing stm32f4xx_hal_smartcard.o(.rrx_text), (6 bytes).
    Removing stm32f4xx_hal_spdifrx.o(.rev16_text), (4 bytes).
    Removing stm32f4xx_hal_spdifrx.o(.revsh_text), (4 bytes).
    Removing stm32f4xx_hal_spdifrx.o(.rrx_text), (6 bytes).
    Removing stm32f4xx_hal_spi.o(.rev16_text), (4 bytes).
    Removing stm32f4xx_hal_spi.o(.revsh_text), (4 bytes).
    Removing stm32f4xx_hal_spi.o(.rrx_text), (6 bytes).
    Removing stm32f4xx_hal_sram.o(.rev16_text), (4 bytes).
    Removing stm32f4xx_hal_sram.o(.revsh_text), (4 bytes).
    Removing stm32f4xx_hal_sram.o(.rrx_text), (6 bytes).
    Removing stm32f4xx_hal_tim.o(.rev16_text), (4 bytes).
    Removing stm32f4xx_hal_tim.o(.revsh_text), (4 bytes).
    Removing stm32f4xx_hal_tim.o(.rrx_text), (6 bytes).
    Removing stm32f4xx_hal_tim.o(.text), (10240 bytes).
    Removing stm32f4xx_hal_tim_ex.o(.rev16_text), (4 bytes).
    Removing stm32f4xx_hal_tim_ex.o(.revsh_text), (4 bytes).
    Removing stm32f4xx_hal_tim_ex.o(.rrx_text), (6 bytes).
    Removing stm32f4xx_hal_tim_ex.o(.text), (3508 bytes).
    Removing stm32f4xx_hal_uart.o(.rev16_text), (4 bytes).
    Removing stm32f4xx_hal_uart.o(.revsh_text), (4 bytes).
    Removing stm32f4xx_hal_uart.o(.rrx_text), (6 bytes).
    Removing stm32f4xx_hal_usart.o(.rev16_text), (4 bytes).
    Removing stm32f4xx_hal_usart.o(.revsh_text), (4 bytes).
    Removing stm32f4xx_hal_usart.o(.rrx_text), (6 bytes).
    Removing stm32f4xx_hal_usart.o(.text), (4428 bytes).
    Removing stm32f4xx_hal_wwdg.o(.rev16_text), (4 bytes).
    Removing stm32f4xx_hal_wwdg.o(.revsh_text), (4 bytes).
    Removing stm32f4xx_hal_wwdg.o(.rrx_text), (6 bytes).
    Removing stm32f4xx_ll_fmc.o(.rev16_text), (4 bytes).
    Removing stm32f4xx_ll_fmc.o(.revsh_text), (4 bytes).
    Removing stm32f4xx_ll_fmc.o(.rrx_text), (6 bytes).
    Removing stm32f4xx_ll_fsmc.o(.rev16_text), (4 bytes).
    Removing stm32f4xx_ll_fsmc.o(.revsh_text), (4 bytes).
    Removing stm32f4xx_ll_fsmc.o(.rrx_text), (6 bytes).
    Removing stm32f4xx_ll_sdmmc.o(.rev16_text), (4 bytes).
    Removing stm32f4xx_ll_sdmmc.o(.revsh_text), (4 bytes).
    Removing stm32f4xx_ll_sdmmc.o(.rrx_text), (6 bytes).
    Removing stm32f4xx_ll_usb.o(.rev16_text), (4 bytes).
    Removing stm32f4xx_ll_usb.o(.revsh_text), (4 bytes).
    Removing stm32f4xx_ll_usb.o(.rrx_text), (6 bytes).
    Removing stm32f4xx_ll_utils.o(.rev16_text), (4 bytes).
    Removing stm32f4xx_ll_utils.o(.revsh_text), (4 bytes).
    Removing stm32f4xx_ll_utils.o(.rrx_text), (6 bytes).
    Removing stm32f4xx_ll_utils.o(.text), (896 bytes).
    Removing mempool.o(.text), (1028 bytes).
    Removing mempool.o(.constdata), (62 bytes).
    Removing mempool.o(.data), (8 bytes).
    Removing backtrace.o(.text), (2 bytes).
    Removing div0.o(.text), (4 bytes).
    Removing showmem.o(.text), (120 bytes).
    Removing showmem.o(.constdata), (18 bytes).
    Removing poll.o(.text), (500 bytes).
    Removing select.o(.text), (584 bytes).
    Removing select.o(.constdata), (7 bytes).
    Removing pipe.o(.text), (1624 bytes).
    Removing pipe.o(.constdata), (51 bytes).
    Removing pipe.o(.data), (4 bytes).
    Removing ringbuffer.o(.text), (1348 bytes).
    Removing ringbuffer.o(.constdata), (214 bytes).
    Removing workqueue.o(.text), (776 bytes).
    Removing workqueue.o(.constdata), (176 bytes).
    Removing time.o(.text), (48 bytes).

261 unused section(s) (total 34470 bytes) removed from the image.

==============================================================================

Image Symbol Table

    Local Symbols

    Symbol Name                              Value     Ov Type        Size  Object(Section)

    ../clib/angel/boardlib.s                 0x00000000   Number         0  boardinit2.o ABSOLUTE
    ../clib/angel/boardlib.s                 0x00000000   Number         0  boardshut.o ABSOLUTE
    ../clib/angel/boardlib.s                 0x00000000   Number         0  boardinit1.o ABSOLUTE
    ../clib/angel/boardlib.s                 0x00000000   Number         0  boardinit3.o ABSOLUTE
    ../clib/angel/dczerorl2.s                0x00000000   Number         0  __dczerorl2.o ABSOLUTE
    ../clib/angel/handlers.s                 0x00000000   Number         0  __scatter_zi.o ABSOLUTE
    ../clib/angel/kernel.s                   0x00000000   Number         0  rtexit.o ABSOLUTE
    ../clib/angel/kernel.s                   0x00000000   Number         0  __rtentry.o ABSOLUTE
    ../clib/angel/kernel.s                   0x00000000   Number         0  __rtentry4.o ABSOLUTE
    ../clib/angel/kernel.s                   0x00000000   Number         0  __rtentry2.o ABSOLUTE
    ../clib/angel/kernel.s                   0x00000000   Number         0  rtexit2.o ABSOLUTE
    ../clib/angel/rt.s                       0x00000000   Number         0  rt_errno_addr_intlibspace.o ABSOLUTE
    ../clib/angel/rt.s                       0x00000000   Number         0  aeabi_ldiv0.o ABSOLUTE
    ../clib/angel/rt.s                       0x00000000   Number         0  rt_div0.o ABSOLUTE
    ../clib/angel/rt.s                       0x00000000   Number         0  rt_raise.o ABSOLUTE
    ../clib/angel/rt.s                       0x00000000   Number         0  aeabi_ldiv0_sigfpe.o ABSOLUTE
    ../clib/angel/rt.s                       0x00000000   Number         0  rt_errno_addr.o ABSOLUTE
    ../clib/angel/scatter.s                  0x00000000   Number         0  __scatter.o ABSOLUTE
    ../clib/angel/startup.s                  0x00000000   Number         0  __main.o ABSOLUTE
    ../clib/angel/sys.s                      0x00000000   Number         0  mutex_dummy.o ABSOLUTE
    ../clib/angel/sys.s                      0x00000000   Number         0  sys_stackheap_outer.o ABSOLUTE
    ../clib/angel/sys.s                      0x00000000   Number         0  libspace.o ABSOLUTE
    ../clib/angel/sys.s                      0x00000000   Number         0  use_no_semi.o ABSOLUTE
    ../clib/armsys.c                         0x00000000   Number         0  argv_veneer.o ABSOLUTE
    ../clib/armsys.c                         0x00000000   Number         0  argv_veneer.o ABSOLUTE
    ../clib/armsys.c                         0x00000000   Number         0  _get_argv_nomalloc.o ABSOLUTE
    ../clib/armsys.c                         0x00000000   Number         0  no_argv.o ABSOLUTE
    ../clib/assert.c                         0x00000000   Number         0  assert_stdio.o ABSOLUTE
    ../clib/heapalloc.c                      0x00000000   Number         0  hguard.o ABSOLUTE
    ../clib/heapalloc.c                      0x00000000   Number         0  hrguard.o ABSOLUTE
    ../clib/heapaux.c                        0x00000000   Number         0  heapauxi.o ABSOLUTE
    ../clib/libinit.s                        0x00000000   Number         0  libinit2.o ABSOLUTE
    ../clib/libinit.s                        0x00000000   Number         0  libshutdown2.o ABSOLUTE
    ../clib/libinit.s                        0x00000000   Number         0  libinit.o ABSOLUTE
    ../clib/libinit.s                        0x00000000   Number         0  libshutdown.o ABSOLUTE
    ../clib/longlong.s                       0x00000000   Number         0  llsdiv.o ABSOLUTE
    ../clib/longlong.s                       0x00000000   Number         0  lludivv7m.o ABSOLUTE
    ../clib/memcpset.s                       0x00000000   Number         0  strcmpv7m.o ABSOLUTE
    ../clib/memcpset.s                       0x00000000   Number         0  strncpy.o ABSOLUTE
    ../clib/memcpset.s                       0x00000000   Number         0  rt_memclr_w.o ABSOLUTE
    ../clib/memcpset.s                       0x00000000   Number         0  rt_memclr.o ABSOLUTE
    ../clib/memcpset.s                       0x00000000   Number         0  rt_memcpy_w.o ABSOLUTE
    ../clib/memcpset.s                       0x00000000   Number         0  rt_memcpy_v6.o ABSOLUTE
    ../clib/printf.c                         0x00000000   Number         0  _printf_str.o ABSOLUTE
    ../clib/printf.c                         0x00000000   Number         0  __printf_ss.o ABSOLUTE
    ../clib/printf.c                         0x00000000   Number         0  _snputc.o ABSOLUTE
    ../clib/printf.c                         0x00000000   Number         0  __printf_flags_ss.o ABSOLUTE
    ../clib/printf.c                         0x00000000   Number         0  _sputc.o ABSOLUTE
    ../clib/printf.c                         0x00000000   Number         0  __printf_ss_wp.o ABSOLUTE
    ../clib/printf.c                         0x00000000   Number         0  __printf_wp.o ABSOLUTE
    ../clib/printf.c                         0x00000000   Number         0  __printf_flags_wp.o ABSOLUTE
    ../clib/printf.c                         0x00000000   Number         0  _printf_char.o ABSOLUTE
    ../clib/printf.c                         0x00000000   Number         0  __printf_nopercent.o ABSOLUTE
    ../clib/printf.c                         0x00000000   Number         0  noretval__2snprintf.o ABSOLUTE
    ../clib/printf.c                         0x00000000   Number         0  __printf.o ABSOLUTE
    ../clib/printf.c                         0x00000000   Number         0  _printf_char_common.o ABSOLUTE
    ../clib/printf.c                         0x00000000   Number         0  __printf_flags.o ABSOLUTE
    ../clib/printf.c                         0x00000000   Number         0  __2snprintf.o ABSOLUTE
    ../clib/printf.c                         0x00000000   Number         0  __printf_flags_ss_wp.o ABSOLUTE
    ../clib/printf_percent.s                 0x00000000   Number         0  _printf_percent.o ABSOLUTE
    ../clib/printf_percent.s                 0x00000000   Number         0  _printf_s.o ABSOLUTE
    ../clib/printf_percent.s                 0x00000000   Number         0  _printf_percent_end.o ABSOLUTE
    ../clib/signal.c                         0x00000000   Number         0  defsig_cppl_inner.o ABSOLUTE
    ../clib/signal.c                         0x00000000   Number         0  defsig_exit.o ABSOLUTE
    ../clib/signal.c                         0x00000000   Number         0  defsig_stak_inner.o ABSOLUTE
    ../clib/signal.c                         0x00000000   Number         0  defsig_rtmem_inner.o ABSOLUTE
    ../clib/signal.c                         0x00000000   Number         0  defsig_fpe_formal.o ABSOLUTE
    ../clib/signal.c                         0x00000000   Number         0  defsig_rtred_formal.o ABSOLUTE
    ../clib/signal.c                         0x00000000   Number         0  defsig_rtmem_formal.o ABSOLUTE
    ../clib/signal.c                         0x00000000   Number         0  defsig_rtmem_outer.o ABSOLUTE
    ../clib/signal.c                         0x00000000   Number         0  defsig_abrt_inner.o ABSOLUTE
    ../clib/signal.c                         0x00000000   Number         0  defsig_rtred_outer.o ABSOLUTE
    ../clib/signal.c                         0x00000000   Number         0  defsig_fpe_inner.o ABSOLUTE
    ../clib/signal.c                         0x00000000   Number         0  defsig_general.o ABSOLUTE
    ../clib/signal.c                         0x00000000   Number         0  __raise.o ABSOLUTE
    ../clib/signal.c                         0x00000000   Number         0  defsig_rtred_inner.o ABSOLUTE
    ../clib/signal.c                         0x00000000   Number         0  defsig_other.o ABSOLUTE
    ../clib/signal.c                         0x00000000   Number         0  defsig_segv_inner.o ABSOLUTE
    ../clib/signal.c                         0x00000000   Number         0  defsig_fpe_outer.o ABSOLUTE
    ../clib/signal.c                         0x00000000   Number         0  defsig_pvfn_inner.o ABSOLUTE
    ../clib/signal.s                         0x00000000   Number         0  defsig.o ABSOLUTE
    ../clib/stdio.c                          0x00000000   Number         0  fputs_locked.o ABSOLUTE
    ../clib/stdio.c                          0x00000000   Number         0  fputs.o ABSOLUTE
    ../clib/stdio.c                          0x00000000   Number         0  fflush.o ABSOLUTE
    ../clib/stdio.c                          0x00000000   Number         0  flsbuf.o ABSOLUTE
    ../clib/stdio.c                          0x00000000   Number         0  fread.o ABSOLUTE
    ../clib/stdio.c                          0x00000000   Number         0  fwrite.o ABSOLUTE
    ../clib/stdio.c                          0x00000000   Number         0  flushlinebuffered_locked.o ABSOLUTE
    ../clib/stdio.c                          0x00000000   Number         0  fwritefast_locked.o ABSOLUTE
    ../clib/stdio.c                          0x00000000   Number         0  fread_bytes_avail_locked.o ABSOLUTE
    ../clib/stdio.c                          0x00000000   Number         0  freadfast_locked.o ABSOLUTE
    ../clib/stdio.c                          0x00000000   Number         0  flushlinebuffered.o ABSOLUTE
    ../clib/stdio.c                          0x00000000   Number         0  getc.o ABSOLUTE
    ../clib/stdio.c                          0x00000000   Number         0  fopen.o ABSOLUTE
    ../clib/stdio.c                          0x00000000   Number         0  stdio_streams.o ABSOLUTE
    ../clib/stdio.c                          0x00000000   Number         0  fclose.o ABSOLUTE
    ../clib/stdio.c                          0x00000000   Number         0  fclose_locked.o ABSOLUTE
    ../clib/stdio.c                          0x00000000   Number         0  fopen_locked.o ABSOLUTE
    ../clib/stdio.c                          0x00000000   Number         0  fwritefast.o ABSOLUTE
    ../clib/stdio.c                          0x00000000   Number         0  fread_bytes_avail.o ABSOLUTE
    ../clib/stdio.c                          0x00000000   Number         0  freadfast.o ABSOLUTE
    ../clib/stdio.c                          0x00000000   Number         0  fgetc.o ABSOLUTE
    ../clib/stdio.c                          0x00000000   Number         0  ftell.o ABSOLUTE
    ../clib/stdio.c                          0x00000000   Number         0  fputc.o ABSOLUTE
    ../clib/stdio.c                          0x00000000   Number         0  stdio.o ABSOLUTE
    ../clib/stdio.c                          0x00000000   Number         0  streamlock.o ABSOLUTE
    ../clib/stdio.c                          0x00000000   Number         0  initio.o ABSOLUTE
    ../clib/stdio.c                          0x00000000   Number         0  fgetc_locked.o ABSOLUTE
    ../clib/stdio.c                          0x00000000   Number         0  fputc_locked.o ABSOLUTE
    ../clib/stdio.c                          0x00000000   Number         0  initio_locked.o ABSOLUTE
    ../clib/stdio.c                          0x00000000   Number         0  setvbuf.o ABSOLUTE
    ../clib/stdio.c                          0x00000000   Number         0  setvbuf_locked.o ABSOLUTE
    ../clib/stdio.c                          0x00000000   Number         0  fseek.o ABSOLUTE
    ../clib/stdio.c                          0x00000000   Number         0  fflush_locked.o ABSOLUTE
    ../clib/stdio.c                          0x00000000   Number         0  filbuf.o ABSOLUTE
    ../clib/stdlib.c                         0x00000000   Number         0  exit.o ABSOLUTE
    ../clib/string.c                         0x00000000   Number         0  strcat.o ABSOLUTE
    ../clib/string.c                         0x00000000   Number         0  strstr.o ABSOLUTE
    ../clib/string.c                         0x00000000   Number         0  strncmp.o ABSOLUTE
    ../clib/string.c                         0x00000000   Number         0  strrchr.o ABSOLUTE
    ../clib/string.c                         0x00000000   Number         0  memcmp.o ABSOLUTE
    ../clib/string.c                         0x00000000   Number         0  strcpy.o ABSOLUTE
    ../clib/string.c                         0x00000000   Number         0  strlen.o ABSOLUTE
    ../clib/wchar.c                          0x00000000   Number         0  filbuf_fwide.o ABSOLUTE
    ../clib/wchar.c                          0x00000000   Number         0  flsbuf_fwide.o ABSOLUTE
    ../fplib/fpinit.s                        0x00000000   Number         0  fpinit.o ABSOLUTE
    ..\rt-thread\components\dfs\filesystems\devfs\devfs.c 0x00000000   Number         0  devfs.o ABSOLUTE
    ..\rt-thread\components\dfs\filesystems\ramfs\dfs_ramfs.c 0x00000000   Number         0  dfs_ramfs.o ABSOLUTE
    ..\rt-thread\components\dfs\src\dfs.c    0x00000000   Number         0  dfs.o ABSOLUTE
    ..\rt-thread\components\dfs\src\dfs_file.c 0x00000000   Number         0  dfs_file.o ABSOLUTE
    ..\rt-thread\components\dfs\src\dfs_fs.c 0x00000000   Number         0  dfs_fs.o ABSOLUTE
    ..\rt-thread\components\dfs\src\dfs_posix.c 0x00000000   Number         0  dfs_posix.o ABSOLUTE
    ..\rt-thread\components\dfs\src\poll.c   0x00000000   Number         0  poll.o ABSOLUTE
    ..\rt-thread\components\dfs\src\select.c 0x00000000   Number         0  select.o ABSOLUTE
    ..\rt-thread\components\drivers\misc\pin.c 0x00000000   Number         0  pin.o ABSOLUTE
    ..\rt-thread\components\drivers\serial\serial.c 0x00000000   Number         0  serial.o ABSOLUTE
    ..\rt-thread\components\drivers\src\completion.c 0x00000000   Number         0  completion.o ABSOLUTE
    ..\rt-thread\components\drivers\src\dataqueue.c 0x00000000   Number         0  dataqueue.o ABSOLUTE
    ..\rt-thread\components\drivers\src\pipe.c 0x00000000   Number         0  pipe.o ABSOLUTE
    ..\rt-thread\components\drivers\src\ringbuffer.c 0x00000000   Number         0  ringbuffer.o ABSOLUTE
    ..\rt-thread\components\drivers\src\waitqueue.c 0x00000000   Number         0  waitqueue.o ABSOLUTE
    ..\rt-thread\components\drivers\src\workqueue.c 0x00000000   Number         0  workqueue.o ABSOLUTE
    ..\rt-thread\components\drivers\usb\usbdevice\class\winusb.c 0x00000000   Number         0  winusb.o ABSOLUTE
    ..\rt-thread\components\drivers\usb\usbdevice\core\core.c 0x00000000   Number         0  core.o ABSOLUTE
    ..\rt-thread\components\drivers\usb\usbdevice\core\usbdevice.c 0x00000000   Number         0  usbdevice.o ABSOLUTE
    ..\rt-thread\components\finsh\cmd.c      0x00000000   Number         0  cmd.o ABSOLUTE
    ..\rt-thread\components\finsh\msh.c      0x00000000   Number         0  msh.o ABSOLUTE
    ..\rt-thread\components\finsh\msh_cmd.c  0x00000000   Number         0  msh_cmd.o ABSOLUTE
    ..\rt-thread\components\finsh\msh_file.c 0x00000000   Number         0  msh_file.o ABSOLUTE
    ..\rt-thread\components\finsh\shell.c    0x00000000   Number         0  shell.o ABSOLUTE
    ..\rt-thread\components\finsh\symbol.c   0x00000000   Number         0  symbol.o ABSOLUTE
    ..\rt-thread\components\libc\compilers\armlibc\libc.c 0x00000000   Number         0  libc.o ABSOLUTE
    ..\rt-thread\components\libc\compilers\armlibc\libc_syms.c 0x00000000   Number         0  libc_syms.o ABSOLUTE
    ..\rt-thread\components\libc\compilers\armlibc\mem_std.c 0x00000000   Number         0  mem_std.o ABSOLUTE
    ..\rt-thread\components\libc\compilers\armlibc\stdio.c 0x00000000   Number         0  stdio.o ABSOLUTE
    ..\rt-thread\components\libc\compilers\armlibc\stubs.c 0x00000000   Number         0  stubs.o ABSOLUTE
    ..\rt-thread\components\libc\compilers\armlibc\time.c 0x00000000   Number         0  time.o ABSOLUTE
    ..\rt-thread\libcpu\arm\common\backtrace.c 0x00000000   Number         0  backtrace.o ABSOLUTE
    ..\rt-thread\libcpu\arm\common\div0.c    0x00000000   Number         0  div0.o ABSOLUTE
    ..\rt-thread\libcpu\arm\common\showmem.c 0x00000000   Number         0  showmem.o ABSOLUTE
    ..\rt-thread\libcpu\arm\cortex-m4\context_rvds.S 0x00000000   Number         0  context_rvds.o ABSOLUTE
    ..\rt-thread\libcpu\arm\cortex-m4\cpuport.c 0x00000000   Number         0  cpuport.o ABSOLUTE
    ..\rt-thread\src\clock.c                 0x00000000   Number         0  clock.o ABSOLUTE
    ..\rt-thread\src\components.c            0x00000000   Number         0  components.o ABSOLUTE
    ..\rt-thread\src\device.c                0x00000000   Number         0  device.o ABSOLUTE
    ..\rt-thread\src\idle.c                  0x00000000   Number         0  idle.o ABSOLUTE
    ..\rt-thread\src\ipc.c                   0x00000000   Number         0  ipc.o ABSOLUTE
    ..\rt-thread\src\irq.c                   0x00000000   Number         0  irq.o ABSOLUTE
    ..\rt-thread\src\kservice.c              0x00000000   Number         0  kservice.o ABSOLUTE
    ..\rt-thread\src\mem.c                   0x00000000   Number         0  mem.o ABSOLUTE
    ..\rt-thread\src\memheap.c               0x00000000   Number         0  memheap.o ABSOLUTE
    ..\rt-thread\src\mempool.c               0x00000000   Number         0  mempool.o ABSOLUTE
    ..\rt-thread\src\object.c                0x00000000   Number         0  object.o ABSOLUTE
    ..\rt-thread\src\scheduler.c             0x00000000   Number         0  scheduler.o ABSOLUTE
    ..\rt-thread\src\signal.c                0x00000000   Number         0  signal.o ABSOLUTE
    ..\rt-thread\src\thread.c                0x00000000   Number         0  thread.o ABSOLUTE
    ..\rt-thread\src\timer.c                 0x00000000   Number         0  timer.o ABSOLUTE
    Libraries\CMSIS\Device\ST\STM32F4xx\Source\Templates\arm\startup_stm32f412zx.s 0x00000000   Number         0  startup_stm32f412zx.o ABSOLUTE
    Libraries\CMSIS\Device\ST\STM32F4xx\Source\Templates\system_stm32f4xx.c 0x00000000   Number         0  system_stm32f4xx.o ABSOLUTE
    Libraries\STM32F4xx_HAL_Driver\Src\stm32f4xx_hal.c 0x00000000   Number         0  stm32f4xx_hal.o ABSOLUTE
    Libraries\STM32F4xx_HAL_Driver\Src\stm32f4xx_hal_adc.c 0x00000000   Number         0  stm32f4xx_hal_adc.o ABSOLUTE
    Libraries\STM32F4xx_HAL_Driver\Src\stm32f4xx_hal_adc_ex.c 0x00000000   Number         0  stm32f4xx_hal_adc_ex.o ABSOLUTE
    Libraries\STM32F4xx_HAL_Driver\Src\stm32f4xx_hal_can.c 0x00000000   Number         0  stm32f4xx_hal_can.o ABSOLUTE
    Libraries\STM32F4xx_HAL_Driver\Src\stm32f4xx_hal_cec.c 0x00000000   Number         0  stm32f4xx_hal_cec.o ABSOLUTE
    Libraries\STM32F4xx_HAL_Driver\Src\stm32f4xx_hal_cortex.c 0x00000000   Number         0  stm32f4xx_hal_cortex.o ABSOLUTE
    Libraries\STM32F4xx_HAL_Driver\Src\stm32f4xx_hal_crc.c 0x00000000   Number         0  stm32f4xx_hal_crc.o ABSOLUTE
    Libraries\STM32F4xx_HAL_Driver\Src\stm32f4xx_hal_cryp.c 0x00000000   Number         0  stm32f4xx_hal_cryp.o ABSOLUTE
    Libraries\STM32F4xx_HAL_Driver\Src\stm32f4xx_hal_cryp_ex.c 0x00000000   Number         0  stm32f4xx_hal_cryp_ex.o ABSOLUTE
    Libraries\STM32F4xx_HAL_Driver\Src\stm32f4xx_hal_dac.c 0x00000000   Number         0  stm32f4xx_hal_dac.o ABSOLUTE
    Libraries\STM32F4xx_HAL_Driver\Src\stm32f4xx_hal_dac_ex.c 0x00000000   Number         0  stm32f4xx_hal_dac_ex.o ABSOLUTE
    Libraries\STM32F4xx_HAL_Driver\Src\stm32f4xx_hal_dcmi.c 0x00000000   Number         0  stm32f4xx_hal_dcmi.o ABSOLUTE
    Libraries\STM32F4xx_HAL_Driver\Src\stm32f4xx_hal_dcmi_ex.c 0x00000000   Number         0  stm32f4xx_hal_dcmi_ex.o ABSOLUTE
    Libraries\STM32F4xx_HAL_Driver\Src\stm32f4xx_hal_dfsdm.c 0x00000000   Number         0  stm32f4xx_hal_dfsdm.o ABSOLUTE
    Libraries\STM32F4xx_HAL_Driver\Src\stm32f4xx_hal_dma.c 0x00000000   Number         0  stm32f4xx_hal_dma.o ABSOLUTE
    Libraries\STM32F4xx_HAL_Driver\Src\stm32f4xx_hal_dma2d.c 0x00000000   Number         0  stm32f4xx_hal_dma2d.o ABSOLUTE
    Libraries\STM32F4xx_HAL_Driver\Src\stm32f4xx_hal_dma_ex.c 0x00000000   Number         0  stm32f4xx_hal_dma_ex.o ABSOLUTE
    Libraries\STM32F4xx_HAL_Driver\Src\stm32f4xx_hal_dsi.c 0x00000000   Number         0  stm32f4xx_hal_dsi.o ABSOLUTE
    Libraries\STM32F4xx_HAL_Driver\Src\stm32f4xx_hal_eth.c 0x00000000   Number         0  stm32f4xx_hal_eth.o ABSOLUTE
    Libraries\STM32F4xx_HAL_Driver\Src\stm32f4xx_hal_flash.c 0x00000000   Number         0  stm32f4xx_hal_flash.o ABSOLUTE
    Libraries\STM32F4xx_HAL_Driver\Src\stm32f4xx_hal_flash_ex.c 0x00000000   Number         0  stm32f4xx_hal_flash_ex.o ABSOLUTE
    Libraries\STM32F4xx_HAL_Driver\Src\stm32f4xx_hal_flash_ramfunc.c 0x00000000   Number         0  stm32f4xx_hal_flash_ramfunc.o ABSOLUTE
    Libraries\STM32F4xx_HAL_Driver\Src\stm32f4xx_hal_fmpi2c.c 0x00000000   Number         0  stm32f4xx_hal_fmpi2c.o ABSOLUTE
    Libraries\STM32F4xx_HAL_Driver\Src\stm32f4xx_hal_fmpi2c_ex.c 0x00000000   Number         0  stm32f4xx_hal_fmpi2c_ex.o ABSOLUTE
    Libraries\STM32F4xx_HAL_Driver\Src\stm32f4xx_hal_gpio.c 0x00000000   Number         0  stm32f4xx_hal_gpio.o ABSOLUTE
    Libraries\STM32F4xx_HAL_Driver\Src\stm32f4xx_hal_hash.c 0x00000000   Number         0  stm32f4xx_hal_hash.o ABSOLUTE
    Libraries\STM32F4xx_HAL_Driver\Src\stm32f4xx_hal_hash_ex.c 0x00000000   Number         0  stm32f4xx_hal_hash_ex.o ABSOLUTE
    Libraries\STM32F4xx_HAL_Driver\Src\stm32f4xx_hal_hcd.c 0x00000000   Number         0  stm32f4xx_hal_hcd.o ABSOLUTE
    Libraries\STM32F4xx_HAL_Driver\Src\stm32f4xx_hal_i2c.c 0x00000000   Number         0  stm32f4xx_hal_i2c.o ABSOLUTE
    Libraries\STM32F4xx_HAL_Driver\Src\stm32f4xx_hal_i2c_ex.c 0x00000000   Number         0  stm32f4xx_hal_i2c_ex.o ABSOLUTE
    Libraries\STM32F4xx_HAL_Driver\Src\stm32f4xx_hal_i2s.c 0x00000000   Number         0  stm32f4xx_hal_i2s.o ABSOLUTE
    Libraries\STM32F4xx_HAL_Driver\Src\stm32f4xx_hal_i2s_ex.c 0x00000000   Number         0  stm32f4xx_hal_i2s_ex.o ABSOLUTE
    Libraries\STM32F4xx_HAL_Driver\Src\stm32f4xx_hal_irda.c 0x00000000   Number         0  stm32f4xx_hal_irda.o ABSOLUTE
    Libraries\STM32F4xx_HAL_Driver\Src\stm32f4xx_hal_iwdg.c 0x00000000   Number         0  stm32f4xx_hal_iwdg.o ABSOLUTE
    Libraries\STM32F4xx_HAL_Driver\Src\stm32f4xx_hal_lptim.c 0x00000000   Number         0  stm32f4xx_hal_lptim.o ABSOLUTE
    Libraries\STM32F4xx_HAL_Driver\Src\stm32f4xx_hal_ltdc.c 0x00000000   Number         0  stm32f4xx_hal_ltdc.o ABSOLUTE
    Libraries\STM32F4xx_HAL_Driver\Src\stm32f4xx_hal_ltdc_ex.c 0x00000000   Number         0  stm32f4xx_hal_ltdc_ex.o ABSOLUTE
    Libraries\STM32F4xx_HAL_Driver\Src\stm32f4xx_hal_mmc.c 0x00000000   Number         0  stm32f4xx_hal_mmc.o ABSOLUTE
    Libraries\STM32F4xx_HAL_Driver\Src\stm32f4xx_hal_nand.c 0x00000000   Number         0  stm32f4xx_hal_nand.o ABSOLUTE
    Libraries\STM32F4xx_HAL_Driver\Src\stm32f4xx_hal_nor.c 0x00000000   Number         0  stm32f4xx_hal_nor.o ABSOLUTE
    Libraries\STM32F4xx_HAL_Driver\Src\stm32f4xx_hal_pccard.c 0x00000000   Number         0  stm32f4xx_hal_pccard.o ABSOLUTE
    Libraries\STM32F4xx_HAL_Driver\Src\stm32f4xx_hal_pcd.c 0x00000000   Number         0  stm32f4xx_hal_pcd.o ABSOLUTE
    Libraries\STM32F4xx_HAL_Driver\Src\stm32f4xx_hal_pcd_ex.c 0x00000000   Number         0  stm32f4xx_hal_pcd_ex.o ABSOLUTE
    Libraries\STM32F4xx_HAL_Driver\Src\stm32f4xx_hal_pwr.c 0x00000000   Number         0  stm32f4xx_hal_pwr.o ABSOLUTE
    Libraries\STM32F4xx_HAL_Driver\Src\stm32f4xx_hal_pwr_ex.c 0x00000000   Number         0  stm32f4xx_hal_pwr_ex.o ABSOLUTE
    Libraries\STM32F4xx_HAL_Driver\Src\stm32f4xx_hal_qspi.c 0x00000000   Number         0  stm32f4xx_hal_qspi.o ABSOLUTE
    Libraries\STM32F4xx_HAL_Driver\Src\stm32f4xx_hal_rcc.c 0x00000000   Number         0  stm32f4xx_hal_rcc.o ABSOLUTE
    Libraries\STM32F4xx_HAL_Driver\Src\stm32f4xx_hal_rcc_ex.c 0x00000000   Number         0  stm32f4xx_hal_rcc_ex.o ABSOLUTE
    Libraries\STM32F4xx_HAL_Driver\Src\stm32f4xx_hal_rng.c 0x00000000   Number         0  stm32f4xx_hal_rng.o ABSOLUTE
    Libraries\STM32F4xx_HAL_Driver\Src\stm32f4xx_hal_rtc.c 0x00000000   Number         0  stm32f4xx_hal_rtc.o ABSOLUTE
    Libraries\STM32F4xx_HAL_Driver\Src\stm32f4xx_hal_rtc_ex.c 0x00000000   Number         0  stm32f4xx_hal_rtc_ex.o ABSOLUTE
    Libraries\STM32F4xx_HAL_Driver\Src\stm32f4xx_hal_sai.c 0x00000000   Number         0  stm32f4xx_hal_sai.o ABSOLUTE
    Libraries\STM32F4xx_HAL_Driver\Src\stm32f4xx_hal_sai_ex.c 0x00000000   Number         0  stm32f4xx_hal_sai_ex.o ABSOLUTE
    Libraries\STM32F4xx_HAL_Driver\Src\stm32f4xx_hal_sd.c 0x00000000   Number         0  stm32f4xx_hal_sd.o ABSOLUTE
    Libraries\STM32F4xx_HAL_Driver\Src\stm32f4xx_hal_sdram.c 0x00000000   Number         0  stm32f4xx_hal_sdram.o ABSOLUTE
    Libraries\STM32F4xx_HAL_Driver\Src\stm32f4xx_hal_smartcard.c 0x00000000   Number         0  stm32f4xx_hal_smartcard.o ABSOLUTE
    Libraries\STM32F4xx_HAL_Driver\Src\stm32f4xx_hal_spdifrx.c 0x00000000   Number         0  stm32f4xx_hal_spdifrx.o ABSOLUTE
    Libraries\STM32F4xx_HAL_Driver\Src\stm32f4xx_hal_spi.c 0x00000000   Number         0  stm32f4xx_hal_spi.o ABSOLUTE
    Libraries\STM32F4xx_HAL_Driver\Src\stm32f4xx_hal_sram.c 0x00000000   Number         0  stm32f4xx_hal_sram.o ABSOLUTE
    Libraries\STM32F4xx_HAL_Driver\Src\stm32f4xx_hal_tim.c 0x00000000   Number         0  stm32f4xx_hal_tim.o ABSOLUTE
    Libraries\STM32F4xx_HAL_Driver\Src\stm32f4xx_hal_tim_ex.c 0x00000000   Number         0  stm32f4xx_hal_tim_ex.o ABSOLUTE
    Libraries\STM32F4xx_HAL_Driver\Src\stm32f4xx_hal_uart.c 0x00000000   Number         0  stm32f4xx_hal_uart.o ABSOLUTE
    Libraries\STM32F4xx_HAL_Driver\Src\stm32f4xx_hal_usart.c 0x00000000   Number         0  stm32f4xx_hal_usart.o ABSOLUTE
    Libraries\STM32F4xx_HAL_Driver\Src\stm32f4xx_hal_wwdg.c 0x00000000   Number         0  stm32f4xx_hal_wwdg.o ABSOLUTE
    Libraries\STM32F4xx_HAL_Driver\Src\stm32f4xx_ll_adc.c 0x00000000   Number         0  stm32f4xx_ll_adc.o ABSOLUTE
    Libraries\STM32F4xx_HAL_Driver\Src\stm32f4xx_ll_crc.c 0x00000000   Number         0  stm32f4xx_ll_crc.o ABSOLUTE
    Libraries\STM32F4xx_HAL_Driver\Src\stm32f4xx_ll_dac.c 0x00000000   Number         0  stm32f4xx_ll_dac.o ABSOLUTE
    Libraries\STM32F4xx_HAL_Driver\Src\stm32f4xx_ll_dma.c 0x00000000   Number         0  stm32f4xx_ll_dma.o ABSOLUTE
    Libraries\STM32F4xx_HAL_Driver\Src\stm32f4xx_ll_dma2d.c 0x00000000   Number         0  stm32f4xx_ll_dma2d.o ABSOLUTE
    Libraries\STM32F4xx_HAL_Driver\Src\stm32f4xx_ll_exti.c 0x00000000   Number         0  stm32f4xx_ll_exti.o ABSOLUTE
    Libraries\STM32F4xx_HAL_Driver\Src\stm32f4xx_ll_fmc.c 0x00000000   Number         0  stm32f4xx_ll_fmc.o ABSOLUTE
    Libraries\STM32F4xx_HAL_Driver\Src\stm32f4xx_ll_fsmc.c 0x00000000   Number         0  stm32f4xx_ll_fsmc.o ABSOLUTE
    Libraries\STM32F4xx_HAL_Driver\Src\stm32f4xx_ll_gpio.c 0x00000000   Number         0  stm32f4xx_ll_gpio.o ABSOLUTE
    Libraries\STM32F4xx_HAL_Driver\Src\stm32f4xx_ll_i2c.c 0x00000000   Number         0  stm32f4xx_ll_i2c.o ABSOLUTE
    Libraries\STM32F4xx_HAL_Driver\Src\stm32f4xx_ll_lptim.c 0x00000000   Number         0  stm32f4xx_ll_lptim.o ABSOLUTE
    Libraries\STM32F4xx_HAL_Driver\Src\stm32f4xx_ll_pwr.c 0x00000000   Number         0  stm32f4xx_ll_pwr.o ABSOLUTE
    Libraries\STM32F4xx_HAL_Driver\Src\stm32f4xx_ll_rcc.c 0x00000000   Number         0  stm32f4xx_ll_rcc.o ABSOLUTE
    Libraries\STM32F4xx_HAL_Driver\Src\stm32f4xx_ll_rng.c 0x00000000   Number         0  stm32f4xx_ll_rng.o ABSOLUTE
    Libraries\STM32F4xx_HAL_Driver\Src\stm32f4xx_ll_rtc.c 0x00000000   Number         0  stm32f4xx_ll_rtc.o ABSOLUTE
    Libraries\STM32F4xx_HAL_Driver\Src\stm32f4xx_ll_sdmmc.c 0x00000000   Number         0  stm32f4xx_ll_sdmmc.o ABSOLUTE
    Libraries\STM32F4xx_HAL_Driver\Src\stm32f4xx_ll_spi.c 0x00000000   Number         0  stm32f4xx_ll_spi.o ABSOLUTE
    Libraries\STM32F4xx_HAL_Driver\Src\stm32f4xx_ll_tim.c 0x00000000   Number         0  stm32f4xx_ll_tim.o ABSOLUTE
    Libraries\STM32F4xx_HAL_Driver\Src\stm32f4xx_ll_usart.c 0x00000000   Number         0  stm32f4xx_ll_usart.o ABSOLUTE
    Libraries\STM32F4xx_HAL_Driver\Src\stm32f4xx_ll_usb.c 0x00000000   Number         0  stm32f4xx_ll_usb.o ABSOLUTE
    Libraries\STM32F4xx_HAL_Driver\Src\stm32f4xx_ll_utils.c 0x00000000   Number         0  stm32f4xx_ll_utils.o ABSOLUTE
    Libraries\\CMSIS\\Device\\ST\\STM32F4xx\\Source\\Templates\\system_stm32f4xx.c 0x00000000   Number         0  system_stm32f4xx.o ABSOLUTE
    Libraries\\STM32F4xx_HAL_Driver\\Src\\stm32f4xx_hal.c 0x00000000   Number         0  stm32f4xx_hal.o ABSOLUTE
    Libraries\\STM32F4xx_HAL_Driver\\Src\\stm32f4xx_hal_adc.c 0x00000000   Number         0  stm32f4xx_hal_adc.o ABSOLUTE
    Libraries\\STM32F4xx_HAL_Driver\\Src\\stm32f4xx_hal_adc_ex.c 0x00000000   Number         0  stm32f4xx_hal_adc_ex.o ABSOLUTE
    Libraries\\STM32F4xx_HAL_Driver\\Src\\stm32f4xx_hal_can.c 0x00000000   Number         0  stm32f4xx_hal_can.o ABSOLUTE
    Libraries\\STM32F4xx_HAL_Driver\\Src\\stm32f4xx_hal_cec.c 0x00000000   Number         0  stm32f4xx_hal_cec.o ABSOLUTE
    Libraries\\STM32F4xx_HAL_Driver\\Src\\stm32f4xx_hal_cortex.c 0x00000000   Number         0  stm32f4xx_hal_cortex.o ABSOLUTE
    Libraries\\STM32F4xx_HAL_Driver\\Src\\stm32f4xx_hal_crc.c 0x00000000   Number         0  stm32f4xx_hal_crc.o ABSOLUTE
    Libraries\\STM32F4xx_HAL_Driver\\Src\\stm32f4xx_hal_cryp.c 0x00000000   Number         0  stm32f4xx_hal_cryp.o ABSOLUTE
    Libraries\\STM32F4xx_HAL_Driver\\Src\\stm32f4xx_hal_cryp_ex.c 0x00000000   Number         0  stm32f4xx_hal_cryp_ex.o ABSOLUTE
    Libraries\\STM32F4xx_HAL_Driver\\Src\\stm32f4xx_hal_dac.c 0x00000000   Number         0  stm32f4xx_hal_dac.o ABSOLUTE
    Libraries\\STM32F4xx_HAL_Driver\\Src\\stm32f4xx_hal_dac_ex.c 0x00000000   Number         0  stm32f4xx_hal_dac_ex.o ABSOLUTE
    Libraries\\STM32F4xx_HAL_Driver\\Src\\stm32f4xx_hal_dcmi.c 0x00000000   Number         0  stm32f4xx_hal_dcmi.o ABSOLUTE
    Libraries\\STM32F4xx_HAL_Driver\\Src\\stm32f4xx_hal_dcmi_ex.c 0x00000000   Number         0  stm32f4xx_hal_dcmi_ex.o ABSOLUTE
    Libraries\\STM32F4xx_HAL_Driver\\Src\\stm32f4xx_hal_dfsdm.c 0x00000000   Number         0  stm32f4xx_hal_dfsdm.o ABSOLUTE
    Libraries\\STM32F4xx_HAL_Driver\\Src\\stm32f4xx_hal_dma.c 0x00000000   Number         0  stm32f4xx_hal_dma.o ABSOLUTE
    Libraries\\STM32F4xx_HAL_Driver\\Src\\stm32f4xx_hal_dma2d.c 0x00000000   Number         0  stm32f4xx_hal_dma2d.o ABSOLUTE
    Libraries\\STM32F4xx_HAL_Driver\\Src\\stm32f4xx_hal_dma_ex.c 0x00000000   Number         0  stm32f4xx_hal_dma_ex.o ABSOLUTE
    Libraries\\STM32F4xx_HAL_Driver\\Src\\stm32f4xx_hal_dsi.c 0x00000000   Number         0  stm32f4xx_hal_dsi.o ABSOLUTE
    Libraries\\STM32F4xx_HAL_Driver\\Src\\stm32f4xx_hal_eth.c 0x00000000   Number         0  stm32f4xx_hal_eth.o ABSOLUTE
    Libraries\\STM32F4xx_HAL_Driver\\Src\\stm32f4xx_hal_flash.c 0x00000000   Number         0  stm32f4xx_hal_flash.o ABSOLUTE
    Libraries\\STM32F4xx_HAL_Driver\\Src\\stm32f4xx_hal_flash_ex.c 0x00000000   Number         0  stm32f4xx_hal_flash_ex.o ABSOLUTE
    Libraries\\STM32F4xx_HAL_Driver\\Src\\stm32f4xx_hal_flash_ramfunc.c 0x00000000   Number         0  stm32f4xx_hal_flash_ramfunc.o ABSOLUTE
    Libraries\\STM32F4xx_HAL_Driver\\Src\\stm32f4xx_hal_fmpi2c.c 0x00000000   Number         0  stm32f4xx_hal_fmpi2c.o ABSOLUTE
    Libraries\\STM32F4xx_HAL_Driver\\Src\\stm32f4xx_hal_fmpi2c_ex.c 0x00000000   Number         0  stm32f4xx_hal_fmpi2c_ex.o ABSOLUTE
    Libraries\\STM32F4xx_HAL_Driver\\Src\\stm32f4xx_hal_gpio.c 0x00000000   Number         0  stm32f4xx_hal_gpio.o ABSOLUTE
    Libraries\\STM32F4xx_HAL_Driver\\Src\\stm32f4xx_hal_hash.c 0x00000000   Number         0  stm32f4xx_hal_hash.o ABSOLUTE
    Libraries\\STM32F4xx_HAL_Driver\\Src\\stm32f4xx_hal_hash_ex.c 0x00000000   Number         0  stm32f4xx_hal_hash_ex.o ABSOLUTE
    Libraries\\STM32F4xx_HAL_Driver\\Src\\stm32f4xx_hal_hcd.c 0x00000000   Number         0  stm32f4xx_hal_hcd.o ABSOLUTE
    Libraries\\STM32F4xx_HAL_Driver\\Src\\stm32f4xx_hal_i2c.c 0x00000000   Number         0  stm32f4xx_hal_i2c.o ABSOLUTE
    Libraries\\STM32F4xx_HAL_Driver\\Src\\stm32f4xx_hal_i2c_ex.c 0x00000000   Number         0  stm32f4xx_hal_i2c_ex.o ABSOLUTE
    Libraries\\STM32F4xx_HAL_Driver\\Src\\stm32f4xx_hal_i2s.c 0x00000000   Number         0  stm32f4xx_hal_i2s.o ABSOLUTE
    Libraries\\STM32F4xx_HAL_Driver\\Src\\stm32f4xx_hal_i2s_ex.c 0x00000000   Number         0  stm32f4xx_hal_i2s_ex.o ABSOLUTE
    Libraries\\STM32F4xx_HAL_Driver\\Src\\stm32f4xx_hal_irda.c 0x00000000   Number         0  stm32f4xx_hal_irda.o ABSOLUTE
    Libraries\\STM32F4xx_HAL_Driver\\Src\\stm32f4xx_hal_iwdg.c 0x00000000   Number         0  stm32f4xx_hal_iwdg.o ABSOLUTE
    Libraries\\STM32F4xx_HAL_Driver\\Src\\stm32f4xx_hal_lptim.c 0x00000000   Number         0  stm32f4xx_hal_lptim.o ABSOLUTE
    Libraries\\STM32F4xx_HAL_Driver\\Src\\stm32f4xx_hal_ltdc.c 0x00000000   Number         0  stm32f4xx_hal_ltdc.o ABSOLUTE
    Libraries\\STM32F4xx_HAL_Driver\\Src\\stm32f4xx_hal_ltdc_ex.c 0x00000000   Number         0  stm32f4xx_hal_ltdc_ex.o ABSOLUTE
    Libraries\\STM32F4xx_HAL_Driver\\Src\\stm32f4xx_hal_mmc.c 0x00000000   Number         0  stm32f4xx_hal_mmc.o ABSOLUTE
    Libraries\\STM32F4xx_HAL_Driver\\Src\\stm32f4xx_hal_nand.c 0x00000000   Number         0  stm32f4xx_hal_nand.o ABSOLUTE
    Libraries\\STM32F4xx_HAL_Driver\\Src\\stm32f4xx_hal_nor.c 0x00000000   Number         0  stm32f4xx_hal_nor.o ABSOLUTE
    Libraries\\STM32F4xx_HAL_Driver\\Src\\stm32f4xx_hal_pccard.c 0x00000000   Number         0  stm32f4xx_hal_pccard.o ABSOLUTE
    Libraries\\STM32F4xx_HAL_Driver\\Src\\stm32f4xx_hal_pcd.c 0x00000000   Number         0  stm32f4xx_hal_pcd.o ABSOLUTE
    Libraries\\STM32F4xx_HAL_Driver\\Src\\stm32f4xx_hal_pcd_ex.c 0x00000000   Number         0  stm32f4xx_hal_pcd_ex.o ABSOLUTE
    Libraries\\STM32F4xx_HAL_Driver\\Src\\stm32f4xx_hal_pwr.c 0x00000000   Number         0  stm32f4xx_hal_pwr.o ABSOLUTE
    Libraries\\STM32F4xx_HAL_Driver\\Src\\stm32f4xx_hal_pwr_ex.c 0x00000000   Number         0  stm32f4xx_hal_pwr_ex.o ABSOLUTE
    Libraries\\STM32F4xx_HAL_Driver\\Src\\stm32f4xx_hal_qspi.c 0x00000000   Number         0  stm32f4xx_hal_qspi.o ABSOLUTE
    Libraries\\STM32F4xx_HAL_Driver\\Src\\stm32f4xx_hal_rcc.c 0x00000000   Number         0  stm32f4xx_hal_rcc.o ABSOLUTE
    Libraries\\STM32F4xx_HAL_Driver\\Src\\stm32f4xx_hal_rcc_ex.c 0x00000000   Number         0  stm32f4xx_hal_rcc_ex.o ABSOLUTE
    Libraries\\STM32F4xx_HAL_Driver\\Src\\stm32f4xx_hal_rng.c 0x00000000   Number         0  stm32f4xx_hal_rng.o ABSOLUTE
    Libraries\\STM32F4xx_HAL_Driver\\Src\\stm32f4xx_hal_rtc.c 0x00000000   Number         0  stm32f4xx_hal_rtc.o ABSOLUTE
    Libraries\\STM32F4xx_HAL_Driver\\Src\\stm32f4xx_hal_rtc_ex.c 0x00000000   Number         0  stm32f4xx_hal_rtc_ex.o ABSOLUTE
    Libraries\\STM32F4xx_HAL_Driver\\Src\\stm32f4xx_hal_sai.c 0x00000000   Number         0  stm32f4xx_hal_sai.o ABSOLUTE
    Libraries\\STM32F4xx_HAL_Driver\\Src\\stm32f4xx_hal_sai_ex.c 0x00000000   Number         0  stm32f4xx_hal_sai_ex.o ABSOLUTE
    Libraries\\STM32F4xx_HAL_Driver\\Src\\stm32f4xx_hal_sd.c 0x00000000   Number         0  stm32f4xx_hal_sd.o ABSOLUTE
    Libraries\\STM32F4xx_HAL_Driver\\Src\\stm32f4xx_hal_sdram.c 0x00000000   Number         0  stm32f4xx_hal_sdram.o ABSOLUTE
    Libraries\\STM32F4xx_HAL_Driver\\Src\\stm32f4xx_hal_smartcard.c 0x00000000   Number         0  stm32f4xx_hal_smartcard.o ABSOLUTE
    Libraries\\STM32F4xx_HAL_Driver\\Src\\stm32f4xx_hal_spdifrx.c 0x00000000   Number         0  stm32f4xx_hal_spdifrx.o ABSOLUTE
    Libraries\\STM32F4xx_HAL_Driver\\Src\\stm32f4xx_hal_spi.c 0x00000000   Number         0  stm32f4xx_hal_spi.o ABSOLUTE
    Libraries\\STM32F4xx_HAL_Driver\\Src\\stm32f4xx_hal_sram.c 0x00000000   Number         0  stm32f4xx_hal_sram.o ABSOLUTE
    Libraries\\STM32F4xx_HAL_Driver\\Src\\stm32f4xx_hal_tim.c 0x00000000   Number         0  stm32f4xx_hal_tim.o ABSOLUTE
    Libraries\\STM32F4xx_HAL_Driver\\Src\\stm32f4xx_hal_tim_ex.c 0x00000000   Number         0  stm32f4xx_hal_tim_ex.o ABSOLUTE
    Libraries\\STM32F4xx_HAL_Driver\\Src\\stm32f4xx_hal_uart.c 0x00000000   Number         0  stm32f4xx_hal_uart.o ABSOLUTE
    Libraries\\STM32F4xx_HAL_Driver\\Src\\stm32f4xx_hal_usart.c 0x00000000   Number         0  stm32f4xx_hal_usart.o ABSOLUTE
    Libraries\\STM32F4xx_HAL_Driver\\Src\\stm32f4xx_hal_wwdg.c 0x00000000   Number         0  stm32f4xx_hal_wwdg.o ABSOLUTE
    Libraries\\STM32F4xx_HAL_Driver\\Src\\stm32f4xx_ll_fmc.c 0x00000000   Number         0  stm32f4xx_ll_fmc.o ABSOLUTE
    Libraries\\STM32F4xx_HAL_Driver\\Src\\stm32f4xx_ll_fsmc.c 0x00000000   Number         0  stm32f4xx_ll_fsmc.o ABSOLUTE
    Libraries\\STM32F4xx_HAL_Driver\\Src\\stm32f4xx_ll_sdmmc.c 0x00000000   Number         0  stm32f4xx_ll_sdmmc.o ABSOLUTE
    Libraries\\STM32F4xx_HAL_Driver\\Src\\stm32f4xx_ll_usb.c 0x00000000   Number         0  stm32f4xx_ll_usb.o ABSOLUTE
    Libraries\\STM32F4xx_HAL_Driver\\Src\\stm32f4xx_ll_utils.c 0x00000000   Number         0  stm32f4xx_ll_utils.o ABSOLUTE
    applications\\main.c                     0x00000000   Number         0  main.o ABSOLUTE
    applications\\usb_winusb.c               0x00000000   Number         0  usb_winusb.o ABSOLUTE
    applications\main.c                      0x00000000   Number         0  main.o ABSOLUTE
    applications\usb_winusb.c                0x00000000   Number         0  usb_winusb.o ABSOLUTE
    dc.s                                     0x00000000   Number         0  dc.o ABSOLUTE
    drivers\\board.c                         0x00000000   Number         0  board.o ABSOLUTE
    drivers\\drv_gpio.c                      0x00000000   Number         0  drv_gpio.o ABSOLUTE
    drivers\\drv_usart.c                     0x00000000   Number         0  drv_usart.o ABSOLUTE
    drivers\\drv_usbd.c                      0x00000000   Number         0  drv_usbd.o ABSOLUTE
    drivers\\stm32f4xx_it.c                  0x00000000   Number         0  stm32f4xx_it.o ABSOLUTE
    drivers\board.c                          0x00000000   Number         0  board.o ABSOLUTE
    drivers\drv_gpio.c                       0x00000000   Number         0  drv_gpio.o ABSOLUTE
    drivers\drv_usart.c                      0x00000000   Number         0  drv_usart.o ABSOLUTE
    drivers\drv_usbd.c                       0x00000000   Number         0  drv_usbd.o ABSOLUTE
    drivers\stm32f4xx_it.c                   0x00000000   Number         0  stm32f4xx_it.o ABSOLUTE
    RESET                                    0x08000000   Section      452  startup_stm32f412zx.o(RESET)
    !!!main                                  0x080001c4   Section        8  __main.o(!!!main)
    !!!scatter                               0x080001cc   Section       52  __scatter.o(!!!scatter)
    !!dczerorl2                              0x08000200   Section       90  __dczerorl2.o(!!dczerorl2)
    !!handler_zi                             0x0800025c   Section       28  __scatter_zi.o(!!handler_zi)
    .ARM.Collect$$_printf_percent$$00000000  0x08000278   Section        0  _printf_percent.o(.ARM.Collect$$_printf_percent$$00000000)
    .ARM.Collect$$_printf_percent$$00000014  0x08000278   Section        6  _printf_s.o(.ARM.Collect$$_printf_percent$$00000014)
    .ARM.Collect$$_printf_percent$$00000017  0x0800027e   Section        4  _printf_percent_end.o(.ARM.Collect$$_printf_percent$$00000017)
    .ARM.Collect$$libinit$$00000000          0x08000282   Section        2  libinit.o(.ARM.Collect$$libinit$$00000000)
    .ARM.Collect$$libinit$$00000001          0x08000284   Section        4  libinit2.o(.ARM.Collect$$libinit$$00000001)
    .ARM.Collect$$libinit$$00000004          0x08000288   Section        0  libinit2.o(.ARM.Collect$$libinit$$00000004)
    .ARM.Collect$$libinit$$0000000A          0x08000288   Section        0  libinit2.o(.ARM.Collect$$libinit$$0000000A)
    .ARM.Collect$$libinit$$0000000C          0x08000288   Section        0  libinit2.o(.ARM.Collect$$libinit$$0000000C)
    .ARM.Collect$$libinit$$0000000E          0x08000288   Section        0  libinit2.o(.ARM.Collect$$libinit$$0000000E)
    .ARM.Collect$$libinit$$00000011          0x08000288   Section        0  libinit2.o(.ARM.Collect$$libinit$$00000011)
    .ARM.Collect$$libinit$$00000013          0x08000288   Section        0  libinit2.o(.ARM.Collect$$libinit$$00000013)
    .ARM.Collect$$libinit$$00000015          0x08000288   Section        0  libinit2.o(.ARM.Collect$$libinit$$00000015)
    .ARM.Collect$$libinit$$00000017          0x08000288   Section        0  libinit2.o(.ARM.Collect$$libinit$$00000017)
    .ARM.Collect$$libinit$$00000019          0x08000288   Section        0  libinit2.o(.ARM.Collect$$libinit$$00000019)
    .ARM.Collect$$libinit$$0000001B          0x08000288   Section        0  libinit2.o(.ARM.Collect$$libinit$$0000001B)
    .ARM.Collect$$libinit$$0000001D          0x08000288   Section        0  libinit2.o(.ARM.Collect$$libinit$$0000001D)
    .ARM.Collect$$libinit$$0000001F          0x08000288   Section        0  libinit2.o(.ARM.Collect$$libinit$$0000001F)
    .ARM.Collect$$libinit$$00000021          0x08000288   Section        0  libinit2.o(.ARM.Collect$$libinit$$00000021)
    .ARM.Collect$$libinit$$00000023          0x08000288   Section        0  libinit2.o(.ARM.Collect$$libinit$$00000023)
    .ARM.Collect$$libinit$$00000024          0x08000288   Section        4  libinit2.o(.ARM.Collect$$libinit$$00000024)
    .ARM.Collect$$libinit$$00000025          0x0800028c   Section        0  libinit2.o(.ARM.Collect$$libinit$$00000025)
    .ARM.Collect$$libinit$$0000002C          0x0800028c   Section        0  libinit2.o(.ARM.Collect$$libinit$$0000002C)
    .ARM.Collect$$libinit$$0000002E          0x0800028c   Section        0  libinit2.o(.ARM.Collect$$libinit$$0000002E)
    .ARM.Collect$$libinit$$00000030          0x0800028c   Section        0  libinit2.o(.ARM.Collect$$libinit$$00000030)
    .ARM.Collect$$libinit$$00000032          0x0800028c   Section        0  libinit2.o(.ARM.Collect$$libinit$$00000032)
    .ARM.Collect$$libinit$$00000033          0x0800028c   Section        2  libinit2.o(.ARM.Collect$$libinit$$00000033)
    .ARM.Collect$$libshutdown$$00000000      0x0800028e   Section        2  libshutdown.o(.ARM.Collect$$libshutdown$$00000000)
    .ARM.Collect$$libshutdown$$00000002      0x08000290   Section        0  libshutdown2.o(.ARM.Collect$$libshutdown$$00000002)
    .ARM.Collect$$libshutdown$$00000003      0x08000290   Section        4  libshutdown2.o(.ARM.Collect$$libshutdown$$00000003)
    .ARM.Collect$$libshutdown$$00000004      0x08000294   Section        0  libshutdown2.o(.ARM.Collect$$libshutdown$$00000004)
    .ARM.Collect$$libshutdown$$00000007      0x08000294   Section        0  libshutdown2.o(.ARM.Collect$$libshutdown$$00000007)
    .ARM.Collect$$libshutdown$$0000000A      0x08000294   Section        0  libshutdown2.o(.ARM.Collect$$libshutdown$$0000000A)
    .ARM.Collect$$libshutdown$$0000000C      0x08000294   Section        0  libshutdown2.o(.ARM.Collect$$libshutdown$$0000000C)
    .ARM.Collect$$libshutdown$$0000000F      0x08000294   Section        0  libshutdown2.o(.ARM.Collect$$libshutdown$$0000000F)
    .ARM.Collect$$libshutdown$$00000010      0x08000294   Section        2  libshutdown2.o(.ARM.Collect$$libshutdown$$00000010)
    .ARM.Collect$$rtentry$$00000000          0x08000296   Section        0  __rtentry.o(.ARM.Collect$$rtentry$$00000000)
    .ARM.Collect$$rtentry$$00000002          0x08000296   Section        0  __rtentry2.o(.ARM.Collect$$rtentry$$00000002)
    .ARM.Collect$$rtentry$$00000004          0x08000296   Section        6  __rtentry4.o(.ARM.Collect$$rtentry$$00000004)
    .ARM.Collect$$rtentry$$00000009          0x0800029c   Section        0  __rtentry2.o(.ARM.Collect$$rtentry$$00000009)
    .ARM.Collect$$rtentry$$0000000A          0x0800029c   Section        4  __rtentry2.o(.ARM.Collect$$rtentry$$0000000A)
    .ARM.Collect$$rtentry$$0000000C          0x080002a0   Section        0  __rtentry2.o(.ARM.Collect$$rtentry$$0000000C)
    .ARM.Collect$$rtentry$$0000000D          0x080002a0   Section        8  __rtentry2.o(.ARM.Collect$$rtentry$$0000000D)
    .ARM.Collect$$rtexit$$00000000           0x080002a8   Section        2  rtexit.o(.ARM.Collect$$rtexit$$00000000)
    .ARM.Collect$$rtexit$$00000002           0x080002aa   Section        0  rtexit2.o(.ARM.Collect$$rtexit$$00000002)
    .ARM.Collect$$rtexit$$00000003           0x080002aa   Section        4  rtexit2.o(.ARM.Collect$$rtexit$$00000003)
    .ARM.Collect$$rtexit$$00000004           0x080002ae   Section        6  rtexit2.o(.ARM.Collect$$rtexit$$00000004)
    .text                                    0x080002b4   Section        0  main.o(.text)
    .text                                    0x080002e0   Section        0  usb_winusb.o(.text)
    usb_thread_entry                         0x080002e1   Thumb Code   276  usb_winusb.o(.text)
    cmd_handler                              0x080003f5   Thumb Code    46  usb_winusb.o(.text)
    rx_indicate                              0x08000423   Thumb Code    16  usb_winusb.o(.text)
    tx_complete                              0x08000433   Thumb Code    16  usb_winusb.o(.text)
    application_usb_init                     0x08000443   Thumb Code   110  usb_winusb.o(.text)
    .text                                    0x08000528   Section        0  board.o(.text)
    SystemClock_Config                       0x08000529   Thumb Code   420  board.o(.text)
    .text                                    0x0800079c   Section        0  stm32f4xx_it.o(.text)
    .text                                    0x080007ac   Section        0  drv_gpio.o(.text)
    GPIOA_CLK_ENABLE                         0x080007ad   Thumb Code    36  drv_gpio.o(.text)
    GPIOB_CLK_ENABLE                         0x080007d1   Thumb Code    36  drv_gpio.o(.text)
    GPIOC_CLK_ENABLE                         0x080007f5   Thumb Code    36  drv_gpio.o(.text)
    GPIOD_CLK_ENABLE                         0x08000819   Thumb Code    36  drv_gpio.o(.text)
    GPIOE_CLK_ENABLE                         0x0800083d   Thumb Code    36  drv_gpio.o(.text)
    GPIOF_CLK_ENABLE                         0x08000861   Thumb Code    36  drv_gpio.o(.text)
    GPIOG_CLK_ENABLE                         0x08000885   Thumb Code    36  drv_gpio.o(.text)
    bit2bitno                                0x0800098d   Thumb Code    30  drv_gpio.o(.text)
    .text                                    0x08000d3c   Section        0  drv_usart.o(.text)
    drv_configure                            0x08000d3d   Thumb Code   186  drv_usart.o(.text)
    drv_control                              0x08000df7   Thumb Code   116  drv_usart.o(.text)
    drv_putc                                 0x08000e6b   Thumb Code    42  drv_usart.o(.text)
    drv_getc                                 0x08000e95   Thumb Code    42  drv_usart.o(.text)
    .text                                    0x080011e8   Section        0  drv_usbd.o(.text)
    _ep_set_stall                            0x08001373   Thumb Code    16  drv_usbd.o(.text)
    _ep_clear_stall                          0x08001383   Thumb Code    16  drv_usbd.o(.text)
    _set_address                             0x08001393   Thumb Code    16  drv_usbd.o(.text)
    _set_config                              0x080013a3   Thumb Code     6  drv_usbd.o(.text)
    _ep_enable                               0x080013a9   Thumb Code    48  drv_usbd.o(.text)
    _ep_disable                              0x080013d9   Thumb Code    44  drv_usbd.o(.text)
    _ep_read                                 0x08001405   Thumb Code    24  drv_usbd.o(.text)
    _ep_read_prepare                         0x0800141d   Thumb Code    24  drv_usbd.o(.text)
    _ep_write                                0x08001435   Thumb Code    24  drv_usbd.o(.text)
    _ep0_send_status                         0x0800144d   Thumb Code    18  drv_usbd.o(.text)
    _suspend                                 0x0800145f   Thumb Code     4  drv_usbd.o(.text)
    _wakeup                                  0x08001463   Thumb Code     4  drv_usbd.o(.text)
    _init                                    0x08001467   Thumb Code   106  drv_usbd.o(.text)
    .text                                    0x08001578   Section        0  system_stm32f4xx.o(.text)
    .text                                    0x08001698   Section       64  startup_stm32f412zx.o(.text)
    $v0                                      0x08001698   Number         0  startup_stm32f412zx.o(.text)
    .text                                    0x080016d8   Section        0  stm32f4xx_hal.o(.text)
    .text                                    0x0800187c   Section        0  stm32f4xx_hal_cortex.o(.text)
    NVIC_SetPriority                         0x0800187d   Thumb Code    32  stm32f4xx_hal_cortex.o(.text)
    NVIC_GetPriorityGrouping                 0x08001bdf   Thumb Code    12  stm32f4xx_hal_cortex.o(.text)
    .text                                    0x08001c00   Section        0  stm32f4xx_hal_dma.o(.text)
    DMA_CalcBaseAndBitshift                  0x08001c01   Thumb Code    46  stm32f4xx_hal_dma.o(.text)
    DMA_CheckFifoParam                       0x08001c2f   Thumb Code   170  stm32f4xx_hal_dma.o(.text)
    DMA_SetConfig                            0x08001e23   Thumb Code    44  stm32f4xx_hal_dma.o(.text)
    .text                                    0x080024ac   Section        0  stm32f4xx_hal_gpio.o(.text)
    .text                                    0x0800283c   Section        0  stm32f4xx_hal_pcd.o(.text)
    PCD_WriteEmptyTxFifo                     0x08002a3f   Thumb Code   162  stm32f4xx_hal_pcd.o(.text)
    .text                                    0x080035a8   Section        0  stm32f4xx_hal_pcd_ex.o(.text)
    .text                                    0x0800373c   Section        0  stm32f4xx_hal_rcc.o(.text)
    .text                                    0x08003fd8   Section        0  stm32f4xx_hal_rcc_ex.o(.text)
    .text                                    0x08004c2c   Section        0  stm32f4xx_hal_uart.o(.text)
    UART_SetConfig                           0x08004c2d   Thumb Code   864  stm32f4xx_hal_uart.o(.text)
    UART_WaitOnFlagUntilTimeout              0x080051d9   Thumb Code   108  stm32f4xx_hal_uart.o(.text)
    UART_EndRxTransfer                       0x080054b7   Thumb Code    32  stm32f4xx_hal_uart.o(.text)
    UART_EndTxTransfer                       0x080054d7   Thumb Code    20  stm32f4xx_hal_uart.o(.text)
    UART_DMAError                            0x080054eb   Thumb Code    80  stm32f4xx_hal_uart.o(.text)
    UART_DMATxHalfCplt                       0x0800553d   Thumb Code    14  stm32f4xx_hal_uart.o(.text)
    UART_DMATransmitCplt                     0x0800554d   Thumb Code    54  stm32f4xx_hal_uart.o(.text)
    UART_DMARxHalfCplt                       0x08005613   Thumb Code    14  stm32f4xx_hal_uart.o(.text)
    UART_DMAReceiveCplt                      0x08005623   Thumb Code    70  stm32f4xx_hal_uart.o(.text)
    UART_DMARxAbortCallback                  0x08005993   Thumb Code    74  stm32f4xx_hal_uart.o(.text)
    UART_DMATxAbortCallback                  0x080059dd   Thumb Code    52  stm32f4xx_hal_uart.o(.text)
    UART_DMATxOnlyAbortCallback              0x08005ae3   Thumb Code    24  stm32f4xx_hal_uart.o(.text)
    UART_DMARxOnlyAbortCallback              0x08005b63   Thumb Code    24  stm32f4xx_hal_uart.o(.text)
    UART_EndTransmit_IT                      0x08005bed   Thumb Code    32  stm32f4xx_hal_uart.o(.text)
    UART_Transmit_IT                         0x08005c0d   Thumb Code   104  stm32f4xx_hal_uart.o(.text)
    UART_DMAAbortOnError                     0x08005c75   Thumb Code    20  stm32f4xx_hal_uart.o(.text)
    UART_Receive_IT                          0x08005c89   Thumb Code   154  stm32f4xx_hal_uart.o(.text)
    .text                                    0x08005fdc   Section        0  stm32f4xx_ll_usb.o(.text)
    USB_CoreReset                            0x08005fdd   Thumb Code    70  stm32f4xx_ll_usb.o(.text)
    .text                                    0x080075b4   Section        0  clock.o(.text)
    .text                                    0x08007620   Section        0  components.o(.text)
    rti_start                                0x08007621   Thumb Code     4  components.o(.text)
    rti_board_start                          0x08007625   Thumb Code     4  components.o(.text)
    rti_board_end                            0x08007629   Thumb Code     4  components.o(.text)
    rti_end                                  0x0800762d   Thumb Code     4  components.o(.text)
    .text                                    0x080076f8   Section        0  device.o(.text)
    .text                                    0x08007aa0   Section        0  idle.o(.text)
    rt_thread_idle_entry                     0x08007b41   Thumb Code    20  idle.o(.text)
    _has_defunct_thread                      0x08007b7f   Thumb Code    16  idle.o(.text)
    .text                                    0x08007bd8   Section        0  ipc.o(.text)
    rt_list_insert_before                    0x08007bd9   Thumb Code    14  ipc.o(.text)
    rt_ipc_list_suspend                      0x08007be7   Thumb Code   108  ipc.o(.text)
    rt_ipc_list_resume_all                   0x08007c53   Thumb Code    50  ipc.o(.text)
    rt_list_init                             0x080091db   Thumb Code     6  ipc.o(.text)
    rt_list_isempty                          0x080091e1   Thumb Code    16  ipc.o(.text)
    rt_ipc_object_init                       0x080091f1   Thumb Code    16  ipc.o(.text)
    rt_ipc_list_resume                       0x08009201   Thumb Code    24  ipc.o(.text)
    .text                                    0x08009230   Section        0  irq.o(.text)
    .text                                    0x080092ac   Section        0  kservice.o(.text)
    print_number                             0x08009571   Thumb Code   400  kservice.o(.text)
    skip_atoi                                0x08009701   Thumb Code    38  kservice.o(.text)
    .text                                    0x08009d5c   Section        0  mem.o(.text)
    plug_holes                               0x08009d69   Thumb Code   160  mem.o(.text)
    .text                                    0x0800a64c   Section        0  memheap.o(.text)
    .text                                    0x0800ac7c   Section        0  object.o(.text)
    rt_list_insert_after                     0x0800ac7d   Thumb Code    14  object.o(.text)
    rt_list_remove                           0x0800ac8b   Thumb Code    18  object.o(.text)
    .text                                    0x0800afc0   Section        0  scheduler.o(.text)
    _rt_scheduler_stack_check                0x0800afc7   Thumb Code    90  scheduler.o(.text)
    rt_list_init                             0x0800b221   Thumb Code     6  scheduler.o(.text)
    .text                                    0x0800b2bc   Section        0  thread.o(.text)
    rt_list_insert_after                     0x0800b2bd   Thumb Code    14  thread.o(.text)
    rt_list_remove                           0x0800b2cb   Thumb Code    18  thread.o(.text)
    _rt_thread_init                          0x0800b381   Thumb Code   160  thread.o(.text)
    .text                                    0x0800b93c   Section        0  timer.o(.text)
    rt_list_insert_after                     0x0800b93d   Thumb Code    14  timer.o(.text)
    _rt_timer_init                           0x0800b951   Thumb Code    66  timer.o(.text)
    rt_timer_list_next_timeout               0x0800b993   Thumb Code    28  timer.o(.text)
    _rt_timer_remove                         0x0800b9af   Thumb Code    46  timer.o(.text)
    rt_list_init                             0x0800bd1f   Thumb Code   106  timer.o(.text)
    rt_list_isempty                          0x0800bd89   Thumb Code    16  timer.o(.text)
    .text                                    0x0800bd98   Section        0  cpuport.o(.text)
    .text                                    0x0800bf28   Section      272  context_rvds.o(.text)
    $v0                                      0x0800bf28   Number         0  context_rvds.o(.text)
    .text                                    0x0800c038   Section        0  dfs.o(.text)
    .text                                    0x0800c4a8   Section        0  dfs_file.o(.text)
    copyfile                                 0x0800ca35   Thumb Code   176  dfs_file.o(.text)
    copydir                                  0x0800cae5   Thumb Code   246  dfs_file.o(.text)
    _get_path_lastname                       0x0800cbdb   Thumb Code    26  dfs_file.o(.text)
    .text                                    0x0800ce70   Section        0  dfs_fs.o(.text)
    .text                                    0x0800d500   Section        0  dfs_posix.o(.text)
    .text                                    0x0800db88   Section        0  devfs.o(.text)
    dfs_device_fs_poll                       0x0800dead   Thumb Code     6  devfs.o(.text)
    .text                                    0x0800df30   Section        0  dfs_ramfs.o(.text)
    rt_list_init                             0x0800e435   Thumb Code     6  dfs_ramfs.o(.text)
    .text                                    0x0800e44c   Section        0  pin.o(.text)
    _pin_read                                0x0800e44d   Thumb Code    62  pin.o(.text)
    _pin_write                               0x0800e48b   Thumb Code    62  pin.o(.text)
    _pin_control                             0x0800e4c9   Thumb Code    52  pin.o(.text)
    .text                                    0x0800e69c   Section        0  serial.o(.text)
    serial_fops_rx_ind                       0x0800e69d   Thumb Code    20  serial.o(.text)
    serial_fops_open                         0x0800e6b1   Thumb Code   102  serial.o(.text)
    serial_fops_close                        0x0800e717   Thumb Code    24  serial.o(.text)
    serial_fops_ioctl                        0x0800e72f   Thumb Code    42  serial.o(.text)
    serial_fops_read                         0x0800e759   Thumb Code    78  serial.o(.text)
    serial_fops_write                        0x0800e7a7   Thumb Code    30  serial.o(.text)
    serial_fops_poll                         0x0800e7c5   Thumb Code   134  serial.o(.text)
    _serial_int_rx                           0x0800e84b   Thumb Code   140  serial.o(.text)
    _serial_fifo_calc_recved_len             0x0800e8d7   Thumb Code    76  serial.o(.text)
    rt_dma_calc_recved_len                   0x0800e923   Thumb Code    12  serial.o(.text)
    rt_dma_recv_update_get_index             0x0800e92f   Thumb Code    92  serial.o(.text)
    rt_dma_recv_update_put_index             0x0800e98b   Thumb Code   154  serial.o(.text)
    _serial_dma_rx                           0x0800ea25   Thumb Code   528  serial.o(.text)
    rt_serial_init                           0x0800ec35   Thumb Code    52  serial.o(.text)
    rt_serial_open                           0x0800ec69   Thumb Code   576  serial.o(.text)
    rt_serial_close                          0x0800eea9   Thumb Code   368  serial.o(.text)
    rt_serial_read                           0x0800f019   Thumb Code    90  serial.o(.text)
    rt_serial_write                          0x0800f073   Thumb Code    90  serial.o(.text)
    rt_serial_control                        0x0800f0cd   Thumb Code   188  serial.o(.text)
    _serial_poll_rx                          0x0800f363   Thumb Code    68  serial.o(.text)
    _serial_poll_tx                          0x0800f3a7   Thumb Code   198  serial.o(.text)
    _serial_int_tx                           0x0800f46d   Thumb Code    90  serial.o(.text)
    _serial_dma_tx                           0x0800f4c7   Thumb Code    92  serial.o(.text)
    .text                                    0x0800f538   Section        0  completion.o(.text)
    rt_list_isempty                          0x0800f675   Thumb Code    16  completion.o(.text)
    .text                                    0x0800f700   Section        0  dataqueue.o(.text)
    rt_list_insert_before                    0x0800f701   Thumb Code    14  dataqueue.o(.text)
    rt_list_init                             0x0800fa9d   Thumb Code     6  dataqueue.o(.text)
    rt_list_isempty                          0x0800faa3   Thumb Code    16  dataqueue.o(.text)
    .text                                    0x0800fb24   Section        0  waitqueue.o(.text)
    .text                                    0x0800fca4   Section        0  core.o(.text)
    rt_list_insert_before                    0x0800fca5   Thumb Code    14  core.o(.text)
    rt_list_len                              0x0800fcb3   Thumb Code    20  core.o(.text)
    dcd_ep_enable                            0x0800fcc7   Thumb Code    64  core.o(.text)
    dcd_ep_disable                           0x0800fd07   Thumb Code    64  core.o(.text)
    dcd_ep_read_prepare                      0x0800fd47   Thumb Code    68  core.o(.text)
    dcd_ep_read                              0x0800fd8b   Thumb Code    60  core.o(.text)
    dcd_ep_write                             0x0800fdc7   Thumb Code    76  core.o(.text)
    dcd_ep0_send_status                      0x0800fe13   Thumb Code    60  core.o(.text)
    dcd_ep_set_stall                         0x0800fe4f   Thumb Code    64  core.o(.text)
    dcd_ep_clear_stall                       0x0800fe8f   Thumb Code    64  core.o(.text)
    _get_device_descriptor                   0x0800ff4d   Thumb Code    64  core.o(.text)
    _get_config_descriptor                   0x0800ff8d   Thumb Code    74  core.o(.text)
    _get_string_descriptor                   0x0800fff3   Thumb Code   626  core.o(.text)
    _get_qualifier_descriptor                0x08010265   Thumb Code    64  core.o(.text)
    _get_descriptor                          0x080102a5   Thumb Code   134  core.o(.text)
    _get_interface                           0x080103ab   Thumb Code    92  core.o(.text)
    _set_interface                           0x08010485   Thumb Code   134  core.o(.text)
    _get_config                              0x0801050b   Thumb Code    92  core.o(.text)
    _set_config                              0x08010603   Thumb Code   544  core.o(.text)
    _set_address                             0x08010823   Thumb Code    66  core.o(.text)
    _request_interface                       0x08010865   Thumb Code    76  core.o(.text)
    rt_usbd_ep_write                         0x08010961   Thumb Code   126  core.o(.text)
    rt_usbd_ep_read_prepare                  0x080109df   Thumb Code   126  core.o(.text)
    _standard_request                        0x08010b13   Thumb Code   688  core.o(.text)
    _function_request                        0x08010dc3   Thumb Code   136  core.o(.text)
    _vendor_request                          0x08010e4b   Thumb Code   222  core.o(.text)
    _dump_setup_packet                       0x08010f29   Thumb Code    34  core.o(.text)
    _setup_request                           0x08010f4b   Thumb Code   116  core.o(.text)
    _data_notify                             0x08010fbf   Thumb Code   354  core.o(.text)
    _ep0_out_notify                          0x080112a9   Thumb Code   140  core.o(.text)
    _sof_notify                              0x08011335   Thumb Code    58  core.o(.text)
    _stop_notify                             0x0801136f   Thumb Code    72  core.o(.text)
    rt_usbd_ep_assign                        0x080117d3   Thumb Code   206  core.o(.text)
    rt_usbd_ep_unassign                      0x08011b23   Thumb Code   100  core.o(.text)
    rt_usbd_thread_entry                     0x08011e6b   Thumb Code   176  core.o(.text)
    rt_list_init                             0x08011f5f   Thumb Code     6  core.o(.text)
    dcd_set_address                          0x08011f65   Thumb Code    64  core.o(.text)
    dcd_set_config                           0x08011fa5   Thumb Code    64  core.o(.text)
    .text                                    0x080120e4   Section        0  usbdevice.o(.text)
    .text                                    0x08012188   Section        0  winusb.o(.text)
    usbd_os_proerty_descriptor_send          0x08012189   Thumb Code   314  winusb.o(.text)
    _ep_out_handler                          0x080122c3   Thumb Code    24  winusb.o(.text)
    _ep_in_handler                           0x080122db   Thumb Code    28  winusb.o(.text)
    _ep0_cmd_handler                         0x080122f7   Thumb Code    48  winusb.o(.text)
    _ep0_cmd_read                            0x08012327   Thumb Code    30  winusb.o(.text)
    _interface_handler                       0x08012345   Thumb Code    56  winusb.o(.text)
    _function_enable                         0x0801237d   Thumb Code    20  winusb.o(.text)
    _function_disable                        0x08012391   Thumb Code    20  winusb.o(.text)
    _winusb_descriptor_config                0x080123a5   Thumb Code    10  winusb.o(.text)
    win_usb_read                             0x080123af   Thumb Code    78  winusb.o(.text)
    win_usb_write                            0x080123fd   Thumb Code    80  winusb.o(.text)
    win_usb_control                          0x0801244d   Thumb Code    16  winusb.o(.text)
    rt_usb_winusb_init                       0x0801245d   Thumb Code    44  winusb.o(.text)
    dcd_ep0_send_status                      0x08012557   Thumb Code   282  winusb.o(.text)
    .text                                    0x08012670   Section        0  shell.o(.text)
    finsh_getchar                            0x080126b3   Thumb Code    12  shell.o(.text)
    shell_auto_complete                      0x080126fd   Thumb Code    42  shell.o(.text)
    shell_handle_history                     0x08012727   Thumb Code    32  shell.o(.text)
    shell_push_history                       0x08012747   Thumb Code   216  shell.o(.text)
    .text                                    0x08012e10   Section        0  cmd.o(.text)
    rt_list_len                              0x08012e11   Thumb Code    20  cmd.o(.text)
    object_name_maxlen                       0x08012e3b   Thumb Code    62  cmd.o(.text)
    _list_thread                             0x08012e79   Thumb Code   188  cmd.o(.text)
    show_wait_queue                          0x08012f47   Thumb Code    40  cmd.o(.text)
    _list_sem                                0x08012f6f   Thumb Code   144  cmd.o(.text)
    _list_event                              0x08013011   Thumb Code   126  cmd.o(.text)
    _list_mutex                              0x080130a1   Thumb Code    92  cmd.o(.text)
    _list_mailbox                            0x0801310f   Thumb Code   164  cmd.o(.text)
    _list_msgqueue                           0x080131c5   Thumb Code   870  cmd.o(.text)
    _list_memheap                            0x0801353d   Thumb Code    76  cmd.o(.text)
    _list_mempool                            0x0801359b   Thumb Code   134  cmd.o(.text)
    _list_timer                              0x08013633   Thumb Code   112  cmd.o(.text)
    _list_device                             0x080136b5   Thumb Code   124  cmd.o(.text)
    rt_list_isempty                          0x08013779   Thumb Code    16  cmd.o(.text)
    object_split                             0x08013789   Thumb Code    22  cmd.o(.text)
    .text                                    0x08013a14   Section        0  msh.o(.text)
    msh_split                                0x08013a5b   Thumb Code   202  msh.o(.text)
    msh_get_cmd                              0x08013b25   Thumb Code    76  msh.o(.text)
    _msh_exec_cmd                            0x08013b71   Thumb Code   136  msh.o(.text)
    str_common                               0x08013c65   Thumb Code    32  msh.o(.text)
    .text                                    0x08013f5c   Section        0  msh_cmd.o(.text)
    .text                                    0x08014444   Section        0  msh_file.o(.text)
    msh_readline                             0x08014445   Thumb Code   122  msh_file.o(.text)
    .text                                    0x080145e4   Section        0  libc.o(.text)
    .text                                    0x080145fa   Section        0  mem_std.o(.text)
    .text                                    0x08014634   Section        0  stdio.o(.text)
    .text                                    0x080146b4   Section        0  stubs.o(.text)
    .text                                    0x08014864   Section        2  use_no_semi.o(.text)
    .text                                    0x08014866   Section        0  hguard.o(.text)
    .text                                    0x0801486a   Section      238  lludivv7m.o(.text)
    .text                                    0x08014958   Section       72  llsdiv.o(.text)
    .text                                    0x080149a0   Section        0  noretval__2snprintf.o(.text)
    .text                                    0x080149d4   Section        0  __printf.o(.text)
    .text                                    0x08014a3c   Section        0  _printf_str.o(.text)
    .text                                    0x08014a8e   Section        0  getc.o(.text)
    .text                                    0x08014a94   Section        0  fopen.o(.text)
    _freopen_locked                          0x08014a95   Thumb Code     0  fopen.o(.text)
    .text                                    0x08014b80   Section        0  fclose.o(.text)
    .text                                    0x08014bcc   Section        0  strstr.o(.text)
    .text                                    0x08014bf0   Section        0  memcmp.o(.text)
    .text                                    0x08014c48   Section        0  strcpy.o(.text)
    .text                                    0x08014c90   Section        0  strrchr.o(.text)
    .text                                    0x08014ca6   Section        0  strlen.o(.text)
    .text                                    0x08014ce4   Section        0  strncmp.o(.text)
    .text                                    0x08014d7a   Section        0  strcat.o(.text)
    .text                                    0x08014d92   Section      138  rt_memcpy_v6.o(.text)
    .text                                    0x08014e1c   Section      100  rt_memcpy_w.o(.text)
    .text                                    0x08014e80   Section       68  rt_memclr.o(.text)
    .text                                    0x08014ec4   Section       78  rt_memclr_w.o(.text)
    .text                                    0x08014f12   Section       86  strncpy.o(.text)
    .text                                    0x08014f68   Section      128  strcmpv7m.o(.text)
    .text                                    0x08014fe8   Section        0  heapauxi.o(.text)
    .text                                    0x08014ff0   Section        0  _printf_char_common.o(.text)
    _printf_input_char                       0x08014ff1   Thumb Code    10  _printf_char_common.o(.text)
    .text                                    0x08015020   Section        0  _sputc.o(.text)
    .text                                    0x0801502a   Section        0  _snputc.o(.text)
    .text                                    0x0801503a   Section        0  _printf_char.o(.text)
    .text                                    0x08015068   Section        0  fseek.o(.text)
    .text                                    0x08015160   Section        0  stdio.o(.text)
    .text                                    0x08015250   Section        0  initio.o(.text)
    .text                                    0x08015388   Section        0  filbuf.o(.text)
    .text                                    0x080155c2   Section        0  flsbuf.o(.text)
    .text                                    0x08015798   Section        0  ftell.o(.text)
    .text                                    0x080157da   Section        0  setvbuf.o(.text)
    .text                                    0x08015820   Section        0  defsig_rtred_outer.o(.text)
    .text                                    0x0801582e   Section       74  sys_stackheap_outer.o(.text)
    .text                                    0x08015878   Section        8  rt_errno_addr_intlibspace.o(.text)
    .text                                    0x08015880   Section        0  freadfast.o(.text)
    .text                                    0x08015998   Section        0  fwritefast.o(.text)
    .text                                    0x08015a54   Section        0  flushlinebuffered.o(.text)
    .text                                    0x08015a8c   Section        0  exit.o(.text)
    .text                                    0x08015a9e   Section        0  defsig_exit.o(.text)
    .text                                    0x08015aa8   Section        0  defsig_rtred_inner.o(.text)
    .text                                    0x08015adc   Section        8  libspace.o(.text)
    .text                                    0x08015ae4   Section        0  fflush.o(.text)
    .text                                    0x08015b48   Section        0  defsig_general.o(.text)
    i.fgetc                                  0x08015b7a   Section        0  fgetc.o(i.fgetc)
    x$fpl$fpinit                             0x08015b92   Section       10  fpinit.o(x$fpl$fpinit)
    $v0                                      0x08015b92   Number         0  fpinit.o(x$fpl$fpinit)
    .constdata                               0x08015b9c   Section       38  usb_winusb.o(.constdata)
    __FUNCTION__                             0x08015b9c   Data          17  usb_winusb.o(.constdata)
    __FUNCTION__                             0x08015bad   Data          21  usb_winusb.o(.constdata)
    .constdata                               0x08015bc4   Section     2408  drv_gpio.o(.constdata)
    pins                                     0x08015bc4   Data        2320  drv_gpio.o(.constdata)
    pin_irq_map                              0x080164d4   Data          64  drv_gpio.o(.constdata)
    _stm32_pin_ops                           0x08016514   Data          24  drv_gpio.o(.constdata)
    .constdata                               0x0801652c   Section       72  drv_usart.o(.constdata)
    drv_uart_ops                             0x0801652c   Data          20  drv_usart.o(.constdata)
    __FUNCTION__                             0x08016540   Data          14  drv_usart.o(.constdata)
    __FUNCTION__                             0x0801654e   Data          12  drv_usart.o(.constdata)
    __FUNCTION__                             0x0801655a   Data           9  drv_usart.o(.constdata)
    __FUNCTION__                             0x08016563   Data           9  drv_usart.o(.constdata)
    .constdata                               0x08016574   Section       80  drv_usbd.o(.constdata)
    _udc_ops                                 0x08016574   Data          48  drv_usbd.o(.constdata)
    __FUNCTION__                             0x080165a4   Data          11  drv_usbd.o(.constdata)
    __FUNCTION__                             0x080165af   Data          12  drv_usbd.o(.constdata)
    __FUNCTION__                             0x080165bb   Data           9  drv_usbd.o(.constdata)
    .constdata                               0x080165c4   Section       24  system_stm32f4xx.o(.constdata)
    .constdata                               0x080165dc   Section        8  stm32f4xx_hal_dma.o(.constdata)
    flagBitshiftOffset                       0x080165dc   Data           8  stm32f4xx_hal_dma.o(.constdata)
    .constdata                               0x080165e4   Section       20  components.o(.constdata)
    __FUNCTION__                             0x080165e4   Data          20  components.o(.constdata)
    .constdata                               0x080165f8   Section      183  device.o(.constdata)
    __FUNCTION__                             0x080165f8   Data          21  device.o(.constdata)
    __FUNCTION__                             0x0801660d   Data          15  device.o(.constdata)
    __FUNCTION__                             0x0801661c   Data          15  device.o(.constdata)
    __FUNCTION__                             0x0801662b   Data          15  device.o(.constdata)
    __FUNCTION__                             0x0801663a   Data          16  device.o(.constdata)
    __FUNCTION__                             0x0801664a   Data          15  device.o(.constdata)
    __FUNCTION__                             0x08016659   Data          16  device.o(.constdata)
    __FUNCTION__                             0x08016669   Data          18  device.o(.constdata)
    __FUNCTION__                             0x0801667b   Data          26  device.o(.constdata)
    __FUNCTION__                             0x08016695   Data          26  device.o(.constdata)
    .constdata                               0x080166af   Section       22  idle.o(.constdata)
    __FUNCTION__                             0x080166af   Data          22  idle.o(.constdata)
    .constdata                               0x080166c5   Section      471  ipc.o(.constdata)
    __FUNCTION__                             0x080166c5   Data          12  ipc.o(.constdata)
    __FUNCTION__                             0x080166d1   Data          14  ipc.o(.constdata)
    __FUNCTION__                             0x080166df   Data          14  ipc.o(.constdata)
    __FUNCTION__                             0x080166ed   Data          14  ipc.o(.constdata)
    __FUNCTION__                             0x080166fb   Data          12  ipc.o(.constdata)
    __FUNCTION__                             0x08016707   Data          15  ipc.o(.constdata)
    __FUNCTION__                             0x08016716   Data          14  ipc.o(.constdata)
    __FUNCTION__                             0x08016724   Data          16  ipc.o(.constdata)
    __FUNCTION__                             0x08016734   Data          16  ipc.o(.constdata)
    __FUNCTION__                             0x08016744   Data          16  ipc.o(.constdata)
    __FUNCTION__                             0x08016754   Data          14  ipc.o(.constdata)
    __FUNCTION__                             0x08016762   Data          17  ipc.o(.constdata)
    __FUNCTION__                             0x08016773   Data          14  ipc.o(.constdata)
    __FUNCTION__                             0x08016781   Data          16  ipc.o(.constdata)
    __FUNCTION__                             0x08016791   Data          16  ipc.o(.constdata)
    __FUNCTION__                             0x080167a1   Data          16  ipc.o(.constdata)
    __FUNCTION__                             0x080167b1   Data          14  ipc.o(.constdata)
    __FUNCTION__                             0x080167bf   Data          14  ipc.o(.constdata)
    __FUNCTION__                             0x080167cd   Data          17  ipc.o(.constdata)
    __FUNCTION__                             0x080167de   Data          11  ipc.o(.constdata)
    __FUNCTION__                             0x080167e9   Data          13  ipc.o(.constdata)
    __FUNCTION__                             0x080167f6   Data          13  ipc.o(.constdata)
    __FUNCTION__                             0x08016803   Data          13  ipc.o(.constdata)
    __FUNCTION__                             0x08016810   Data          16  ipc.o(.constdata)
    __FUNCTION__                             0x08016820   Data          11  ipc.o(.constdata)
    __FUNCTION__                             0x0801682b   Data          14  ipc.o(.constdata)
    __FUNCTION__                             0x08016839   Data          11  ipc.o(.constdata)
    __FUNCTION__                             0x08016844   Data          13  ipc.o(.constdata)
    __FUNCTION__                             0x08016851   Data          13  ipc.o(.constdata)
    __FUNCTION__                             0x0801685e   Data          13  ipc.o(.constdata)
    __FUNCTION__                             0x0801686b   Data          11  ipc.o(.constdata)
    __FUNCTION__                             0x08016876   Data          13  ipc.o(.constdata)
    __FUNCTION__                             0x08016883   Data          11  ipc.o(.constdata)
    __FUNCTION__                             0x0801688e   Data          14  ipc.o(.constdata)
    .constdata                               0x0801689c   Section      290  kservice.o(.constdata)
    small_digits                             0x0801699c   Data          17  kservice.o(.constdata)
    large_digits                             0x080169ad   Data          17  kservice.o(.constdata)
    .constdata                               0x080169be   Section       70  mem.o(.constdata)
    __FUNCTION__                             0x080169be   Data          11  mem.o(.constdata)
    __FUNCTION__                             0x080169c9   Data          20  mem.o(.constdata)
    __FUNCTION__                             0x080169dd   Data          10  mem.o(.constdata)
    __FUNCTION__                             0x080169e7   Data          11  mem.o(.constdata)
    __FUNCTION__                             0x080169f2   Data          10  mem.o(.constdata)
    __FUNCTION__                             0x080169fc   Data           8  mem.o(.constdata)
    .constdata                               0x08016a04   Section       86  memheap.o(.constdata)
    __FUNCTION__                             0x08016a04   Data          16  memheap.o(.constdata)
    __FUNCTION__                             0x08016a14   Data          18  memheap.o(.constdata)
    __FUNCTION__                             0x08016a26   Data          17  memheap.o(.constdata)
    __FUNCTION__                             0x08016a37   Data          19  memheap.o(.constdata)
    __FUNCTION__                             0x08016a4a   Data          16  memheap.o(.constdata)
    .constdata                               0x08016a5a   Section      109  object.o(.constdata)
    __FUNCTION__                             0x08016a5a   Data          15  object.o(.constdata)
    __FUNCTION__                             0x08016a69   Data          17  object.o(.constdata)
    __FUNCTION__                             0x08016a7a   Data          19  object.o(.constdata)
    __FUNCTION__                             0x08016a8d   Data          17  object.o(.constdata)
    __FUNCTION__                             0x08016a9e   Data          26  object.o(.constdata)
    __FUNCTION__                             0x08016ab8   Data          15  object.o(.constdata)
    .constdata                               0x08016ac7   Section       78  scheduler.o(.constdata)
    __FUNCTION__                             0x08016ac7   Data          26  scheduler.o(.constdata)
    __FUNCTION__                             0x08016ae1   Data          26  scheduler.o(.constdata)
    __FUNCTION__                             0x08016afb   Data          26  scheduler.o(.constdata)
    .constdata                               0x08016b15   Section      185  thread.o(.constdata)
    __FUNCTION__                             0x08016b15   Data          16  thread.o(.constdata)
    __FUNCTION__                             0x08016b25   Data          15  thread.o(.constdata)
    __FUNCTION__                             0x08016b34   Data          18  thread.o(.constdata)
    __FUNCTION__                             0x08016b46   Data          17  thread.o(.constdata)
    __FUNCTION__                             0x08016b57   Data          17  thread.o(.constdata)
    __FUNCTION__                             0x08016b68   Data          16  thread.o(.constdata)
    __FUNCTION__                             0x08016b78   Data          18  thread.o(.constdata)
    __FUNCTION__                             0x08016b8a   Data          18  thread.o(.constdata)
    __FUNCTION__                             0x08016b9c   Data          17  thread.o(.constdata)
    __FUNCTION__                             0x08016bad   Data          18  thread.o(.constdata)
    __FUNCTION__                             0x08016bbf   Data          15  thread.o(.constdata)
    .constdata                               0x08016bce   Section       92  timer.o(.constdata)
    __FUNCTION__                             0x08016bce   Data          14  timer.o(.constdata)
    __FUNCTION__                             0x08016bdc   Data          16  timer.o(.constdata)
    __FUNCTION__                             0x08016bec   Data          16  timer.o(.constdata)
    __FUNCTION__                             0x08016bfc   Data          15  timer.o(.constdata)
    __FUNCTION__                             0x08016c0b   Data          14  timer.o(.constdata)
    __FUNCTION__                             0x08016c19   Data          17  timer.o(.constdata)
    .constdata                               0x08016c2a   Section       19  cpuport.o(.constdata)
    __FUNCTION__                             0x08016c2a   Data          19  cpuport.o(.constdata)
    .constdata                               0x08016c3d   Section       35  dfs.o(.constdata)
    __FUNCTION__                             0x08016c3d   Data           9  dfs.o(.constdata)
    __FUNCTION__                             0x08016c46   Data           7  dfs.o(.constdata)
    __FUNCTION__                             0x08016c4d   Data          19  dfs.o(.constdata)
    .constdata                               0x08016c60   Section       64  dfs_fs.o(.constdata)
    __FUNCTION__                             0x08016c60   Data          22  dfs_fs.o(.constdata)
    __FUNCTION__                             0x08016c76   Data          29  dfs_fs.o(.constdata)
    .constdata                               0x08016ca0   Section      197  devfs.o(.constdata)
    _device_fops                             0x08016ca0   Data          36  devfs.o(.constdata)
    _device_fs                               0x08016cc4   Data          40  devfs.o(.constdata)
    __FUNCTION__                             0x08016cec   Data          20  devfs.o(.constdata)
    __FUNCTION__                             0x08016d00   Data          19  devfs.o(.constdata)
    __FUNCTION__                             0x08016d13   Data          20  devfs.o(.constdata)
    __FUNCTION__                             0x08016d27   Data          20  devfs.o(.constdata)
    __FUNCTION__                             0x08016d3b   Data          19  devfs.o(.constdata)
    __FUNCTION__                             0x08016d4e   Data          23  devfs.o(.constdata)
    .constdata                               0x08016d68   Section      192  dfs_ramfs.o(.constdata)
    _ram_fops                                0x08016d68   Data          36  dfs_ramfs.o(.constdata)
    _ramfs                                   0x08016d8c   Data          40  dfs_ramfs.o(.constdata)
    __FUNCTION__                             0x08016db4   Data          17  dfs_ramfs.o(.constdata)
    __FUNCTION__                             0x08016dc5   Data          15  dfs_ramfs.o(.constdata)
    __FUNCTION__                             0x08016dd4   Data          16  dfs_ramfs.o(.constdata)
    __FUNCTION__                             0x08016de4   Data          15  dfs_ramfs.o(.constdata)
    __FUNCTION__                             0x08016df3   Data          19  dfs_ramfs.o(.constdata)
    __FUNCTION__                             0x08016e06   Data          17  dfs_ramfs.o(.constdata)
    __FUNCTION__                             0x08016e17   Data          17  dfs_ramfs.o(.constdata)
    .constdata                               0x08016e28   Section      126  pin.o(.constdata)
    __FUNCTION__                             0x08016e28   Data          10  pin.o(.constdata)
    __FUNCTION__                             0x08016e32   Data          11  pin.o(.constdata)
    __FUNCTION__                             0x08016e3d   Data          13  pin.o(.constdata)
    __FUNCTION__                             0x08016e4a   Data          18  pin.o(.constdata)
    __FUNCTION__                             0x08016e5c   Data          19  pin.o(.constdata)
    __FUNCTION__                             0x08016e6f   Data          18  pin.o(.constdata)
    __FUNCTION__                             0x08016e81   Data          12  pin.o(.constdata)
    __FUNCTION__                             0x08016e8d   Data          13  pin.o(.constdata)
    __FUNCTION__                             0x08016e9a   Data          12  pin.o(.constdata)
    .constdata                               0x08016ea8   Section      368  serial.o(.constdata)
    _serial_fops                             0x08016ea8   Data          36  serial.o(.constdata)
    __FUNCTION__                             0x08016ecc   Data          17  serial.o(.constdata)
    __FUNCTION__                             0x08016edd   Data          17  serial.o(.constdata)
    __FUNCTION__                             0x08016eee   Data          16  serial.o(.constdata)
    __FUNCTION__                             0x08016efe   Data          16  serial.o(.constdata)
    __FUNCTION__                             0x08016f0e   Data          15  serial.o(.constdata)
    __FUNCTION__                             0x08016f1d   Data          15  serial.o(.constdata)
    __FUNCTION__                             0x08016f2c   Data          29  serial.o(.constdata)
    __FUNCTION__                             0x08016f49   Data          29  serial.o(.constdata)
    __FUNCTION__                             0x08016f66   Data          29  serial.o(.constdata)
    __FUNCTION__                             0x08016f83   Data          15  serial.o(.constdata)
    __FUNCTION__                             0x08016f92   Data          15  serial.o(.constdata)
    __FUNCTION__                             0x08016fa1   Data          15  serial.o(.constdata)
    __FUNCTION__                             0x08016fb0   Data          16  serial.o(.constdata)
    __FUNCTION__                             0x08016fc0   Data          15  serial.o(.constdata)
    __FUNCTION__                             0x08016fcf   Data          16  serial.o(.constdata)
    __FUNCTION__                             0x08016fdf   Data          18  serial.o(.constdata)
    __FUNCTION__                             0x08016ff1   Data          22  serial.o(.constdata)
    __FUNCTION__                             0x08017007   Data          17  serial.o(.constdata)
    .constdata                               0x08017018   Section       57  completion.o(.constdata)
    __FUNCTION__                             0x08017018   Data          19  completion.o(.constdata)
    __FUNCTION__                             0x0801702b   Data          19  completion.o(.constdata)
    __FUNCTION__                             0x0801703e   Data          19  completion.o(.constdata)
    .constdata                               0x08017051   Section       75  dataqueue.o(.constdata)
    __FUNCTION__                             0x08017051   Data          19  dataqueue.o(.constdata)
    __FUNCTION__                             0x08017064   Data          19  dataqueue.o(.constdata)
    __FUNCTION__                             0x08017077   Data          18  dataqueue.o(.constdata)
    __FUNCTION__                             0x08017089   Data          19  dataqueue.o(.constdata)
    .constdata                               0x0801709c   Section       15  waitqueue.o(.constdata)
    __FUNCTION__                             0x0801709c   Data          15  waitqueue.o(.constdata)
    .constdata                               0x080170ab   Section     1600  core.o(.constdata)
    __FUNCTION__                             0x080170ab   Data          16  core.o(.constdata)
    __FUNCTION__                             0x080170bb   Data          15  core.o(.constdata)
    __FUNCTION__                             0x080170ca   Data          14  core.o(.constdata)
    __FUNCTION__                             0x080170d8   Data          15  core.o(.constdata)
    __FUNCTION__                             0x080170e7   Data          20  core.o(.constdata)
    __FUNCTION__                             0x080170fb   Data          12  core.o(.constdata)
    __FUNCTION__                             0x08017107   Data          13  core.o(.constdata)
    __FUNCTION__                             0x08017114   Data          20  core.o(.constdata)
    __FUNCTION__                             0x08017128   Data          17  core.o(.constdata)
    __FUNCTION__                             0x08017139   Data          19  core.o(.constdata)
    __FUNCTION__                             0x0801714c   Data          23  core.o(.constdata)
    __FUNCTION__                             0x08017163   Data          23  core.o(.constdata)
    __FUNCTION__                             0x0801717a   Data          23  core.o(.constdata)
    __FUNCTION__                             0x08017191   Data          26  core.o(.constdata)
    __FUNCTION__                             0x080171ab   Data          16  core.o(.constdata)
    __FUNCTION__                             0x080171bb   Data          15  core.o(.constdata)
    __FUNCTION__                             0x080171ca   Data          15  core.o(.constdata)
    __FUNCTION__                             0x080171d9   Data          12  core.o(.constdata)
    __FUNCTION__                             0x080171e5   Data          12  core.o(.constdata)
    __FUNCTION__                             0x080171f1   Data          13  core.o(.constdata)
    __FUNCTION__                             0x080171fe   Data          19  core.o(.constdata)
    __FUNCTION__                             0x08017211   Data          18  core.o(.constdata)
    __FUNCTION__                             0x08017223   Data          18  core.o(.constdata)
    __FUNCTION__                             0x08017235   Data          16  core.o(.constdata)
    __FUNCTION__                             0x08017245   Data          15  core.o(.constdata)
    __FUNCTION__                             0x08017254   Data          13  core.o(.constdata)
    __FUNCTION__                             0x08017261   Data          16  core.o(.constdata)
    __FUNCTION__                             0x08017271   Data          12  core.o(.constdata)
    __FUNCTION__                             0x0801727d   Data          13  core.o(.constdata)
    __FUNCTION__                             0x0801728a   Data          17  core.o(.constdata)
    __FUNCTION__                             0x0801729b   Data          24  core.o(.constdata)
    __FUNCTION__                             0x080172b3   Data          26  core.o(.constdata)
    __FUNCTION__                             0x080172cd   Data          35  core.o(.constdata)
    __FUNCTION__                             0x080172f0   Data          29  core.o(.constdata)
    __FUNCTION__                             0x0801730d   Data          30  core.o(.constdata)
    __FUNCTION__                             0x0801732b   Data          30  core.o(.constdata)
    __FUNCTION__                             0x08017349   Data          22  core.o(.constdata)
    __FUNCTION__                             0x0801735f   Data          23  core.o(.constdata)
    __FUNCTION__                             0x08017376   Data          37  core.o(.constdata)
    __FUNCTION__                             0x0801739b   Data          21  core.o(.constdata)
    __FUNCTION__                             0x080173b0   Data          21  core.o(.constdata)
    __FUNCTION__                             0x080173c5   Data          20  core.o(.constdata)
    __FUNCTION__                             0x080173d9   Data          20  core.o(.constdata)
    __FUNCTION__                             0x080173ed   Data          23  core.o(.constdata)
    __FUNCTION__                             0x08017404   Data          24  core.o(.constdata)
    __FUNCTION__                             0x0801741c   Data          22  core.o(.constdata)
    __FUNCTION__                             0x08017432   Data          26  core.o(.constdata)
    __FUNCTION__                             0x0801744c   Data          28  core.o(.constdata)
    __FUNCTION__                             0x08017468   Data          31  core.o(.constdata)
    __FUNCTION__                             0x08017487   Data          33  core.o(.constdata)
    __FUNCTION__                             0x080174a8   Data          32  core.o(.constdata)
    __FUNCTION__                             0x080174c8   Data          49  core.o(.constdata)
    __FUNCTION__                             0x080174f9   Data          23  core.o(.constdata)
    __FUNCTION__                             0x08017510   Data          19  core.o(.constdata)
    __FUNCTION__                             0x08017523   Data          19  core.o(.constdata)
    __FUNCTION__                             0x08017536   Data          20  core.o(.constdata)
    __FUNCTION__                             0x0801754a   Data          22  core.o(.constdata)
    __FUNCTION__                             0x08017560   Data          22  core.o(.constdata)
    __FUNCTION__                             0x08017576   Data          24  core.o(.constdata)
    __FUNCTION__                             0x0801758e   Data          21  core.o(.constdata)
    __FUNCTION__                             0x080175a3   Data          23  core.o(.constdata)
    __FUNCTION__                             0x080175ba   Data          18  core.o(.constdata)
    __FUNCTION__                             0x080175cc   Data          20  core.o(.constdata)
    __FUNCTION__                             0x080175e0   Data          26  core.o(.constdata)
    __FUNCTION__                             0x080175fa   Data          23  core.o(.constdata)
    __FUNCTION__                             0x08017611   Data          24  core.o(.constdata)
    __FUNCTION__                             0x08017629   Data          22  core.o(.constdata)
    __FUNCTION__                             0x0801763f   Data          23  core.o(.constdata)
    __FUNCTION__                             0x08017656   Data          22  core.o(.constdata)
    __FUNCTION__                             0x0801766c   Data          24  core.o(.constdata)
    __FUNCTION__                             0x08017684   Data          27  core.o(.constdata)
    __FUNCTION__                             0x0801769f   Data          20  core.o(.constdata)
    __FUNCTION__                             0x080176b3   Data          18  core.o(.constdata)
    __FUNCTION__                             0x080176c5   Data          17  core.o(.constdata)
    __FUNCTION__                             0x080176d6   Data          21  core.o(.constdata)
    .constdata                               0x080176eb   Section      118  winusb.o(.constdata)
    __FUNCTION__                             0x080176eb   Data          20  winusb.o(.constdata)
    __FUNCTION__                             0x080176ff   Data          32  winusb.o(.constdata)
    __FUNCTION__                             0x0801771f   Data          17  winusb.o(.constdata)
    __FUNCTION__                             0x08017730   Data          18  winusb.o(.constdata)
    __FUNCTION__                             0x08017742   Data          31  winusb.o(.constdata)
    .constdata                               0x08017761   Section       30  shell.o(.constdata)
    __FUNCTION__                             0x08017761   Data          15  shell.o(.constdata)
    __FUNCTION__                             0x08017770   Data          15  shell.o(.constdata)
    .constdata                               0x08017780   Section       80  cmd.o(.constdata)
    .constdata                               0x080177d0   Section       14  msh.o(.constdata)
    __FUNCTION__                             0x080177d0   Data          14  msh.o(.constdata)
    .constdata                               0x080177de   Section       27  stubs.o(.constdata)
    __FUNCTION__                             0x080177f2   Data           7  stubs.o(.constdata)
    .conststring                             0x080177fc   Section      237  mem.o(.conststring)
    .conststring                             0x080178ec   Section       11  dfs_fs.o(.conststring)
    .conststring                             0x080178f8   Section        6  devfs.o(.conststring)
    .conststring                             0x08017900   Section        4  dfs_ramfs.o(.conststring)
    .conststring                             0x08017904   Section      143  winusb.o(.conststring)
    .conststring                             0x08017994   Section      349  cmd.o(.conststring)
    .rodata.name                             0x08017af1   Section       39  mem.o(.rodata.name)
    .rodata.name                             0x08017b18   Section       35  dfs.o(.rodata.name)
    .rodata.name                             0x08017b3b   Section       95  dfs_file.o(.rodata.name)
    .rodata.name                             0x08017b9a   Section       41  dfs_fs.o(.rodata.name)
    .rodata.name                             0x08017bc3   Section       61  dfs_posix.o(.rodata.name)
    .rodata.name                             0x08017c00   Section      105  pin.o(.rodata.name)
    .rodata.name                             0x08017c69   Section      901  cmd.o(.rodata.name)
    .rodata.name                             0x08017fee   Section       33  msh.o(.rodata.name)
    .rodata.name                             0x0801800f   Section      523  msh_cmd.o(.rodata.name)
    .rti_fn.0                                0x0801821c   Section        4  components.o(.rti_fn.0)
    .rti_fn.0.end                            0x08018220   Section        4  components.o(.rti_fn.0.end)
    .rti_fn.1                                0x08018224   Section        4  drv_gpio.o(.rti_fn.1)
    .rti_fn.1                                0x08018228   Section        4  drv_usart.o(.rti_fn.1)
    .rti_fn.1.end                            0x0801822c   Section        4  components.o(.rti_fn.1.end)
    .rti_fn.2                                0x08018230   Section        4  dfs.o(.rti_fn.2)
    .rti_fn.3                                0x08018234   Section        4  drv_usbd.o(.rti_fn.3)
    .rti_fn.4                                0x08018238   Section        4  dfs_ramfs.o(.rti_fn.4)
    .rti_fn.4                                0x0801823c   Section        4  libc.o(.rti_fn.4)
    .rti_fn.6                                0x08018240   Section        4  usb_winusb.o(.rti_fn.6)
    .rti_fn.6                                0x08018244   Section        4  shell.o(.rti_fn.6)
    .rti_fn.6.end                            0x08018248   Section        4  components.o(.rti_fn.6.end)
    FSymTab                                  0x0801824c   Section       12  mem.o(FSymTab)
    FSymTab                                  0x08018258   Section       12  dfs.o(FSymTab)
    FSymTab                                  0x08018264   Section       48  dfs_file.o(FSymTab)
    FSymTab                                  0x08018294   Section       24  dfs_fs.o(FSymTab)
    FSymTab                                  0x080182ac   Section       24  dfs_posix.o(FSymTab)
    FSymTab                                  0x080182c4   Section       36  pin.o(FSymTab)
    FSymTab                                  0x080182e8   Section      288  cmd.o(FSymTab)
    FSymTab                                  0x08018408   Section       12  msh.o(FSymTab)
    FSymTab                                  0x08018414   Section      168  msh_cmd.o(FSymTab)
    .data                                    0x20000000   Section      192  drv_gpio.o(.data)
    .data                                    0x200000c0   Section       64  drv_usbd.o(.data)
    _ep_pool                                 0x200000c0   Data          64  drv_usbd.o(.data)
    .data                                    0x20000100   Section        4  system_stm32f4xx.o(.data)
    .data                                    0x20000104   Section        4  stm32f4xx_hal.o(.data)
    .data                                    0x20000108   Section        4  stm32f4xx_ll_usb.o(.data)
    debug                                    0x20000108   Data           4  stm32f4xx_ll_usb.o(.data)
    .data                                    0x2000010c   Section        4  clock.o(.data)
    rt_tick                                  0x2000010c   Data           4  clock.o(.data)
    .data                                    0x20000110   Section        4  idle.o(.data)
    rt_thread_idle_hook                      0x20000110   Data           4  idle.o(.data)
    .data                                    0x20000114   Section        9  irq.o(.data)
    rt_interrupt_enter_hook                  0x20000114   Data           4  irq.o(.data)
    rt_interrupt_leave_hook                  0x20000118   Data           4  irq.o(.data)
    .data                                    0x20000120   Section       12  kservice.o(.data)
    __rt_errno                               0x20000120   Data           4  kservice.o(.data)
    _console_device                          0x20000124   Data           4  kservice.o(.data)
    .data                                    0x2000012c   Section       32  mem.o(.data)
    rt_malloc_hook                           0x2000012c   Data           4  mem.o(.data)
    rt_free_hook                             0x20000130   Data           4  mem.o(.data)
    heap_ptr                                 0x20000134   Data           4  mem.o(.data)
    heap_end                                 0x20000138   Data           4  mem.o(.data)
    lfree                                    0x2000013c   Data           4  mem.o(.data)
    mem_size_aligned                         0x20000140   Data           4  mem.o(.data)
    used_mem                                 0x20000144   Data           4  mem.o(.data)
    max_mem                                  0x20000148   Data           4  mem.o(.data)
    .data                                    0x2000014c   Section      180  object.o(.data)
    rt_object_container                      0x2000014c   Data         160  object.o(.data)
    rt_object_attach_hook                    0x200001ec   Data           4  object.o(.data)
    rt_object_detach_hook                    0x200001f0   Data           4  object.o(.data)
    .data                                    0x20000200   Section       28  scheduler.o(.data)
    rt_scheduler_lock_nest                   0x20000200   Data           2  scheduler.o(.data)
    rt_scheduler_hook                        0x20000218   Data           4  scheduler.o(.data)
    .data                                    0x2000021c   Section       12  thread.o(.data)
    rt_thread_suspend_hook                   0x2000021c   Data           4  thread.o(.data)
    rt_thread_resume_hook                    0x20000220   Data           4  thread.o(.data)
    rt_thread_inited_hook                    0x20000224   Data           4  thread.o(.data)
    .data                                    0x20000228   Section       16  timer.o(.data)
    rt_timer_list                            0x20000228   Data           8  timer.o(.data)
    rt_timer_timeout_hook                    0x20000230   Data           4  timer.o(.data)
    random_nr                                0x20000234   Data           4  timer.o(.data)
    .data                                    0x20000238   Section       16  cpuport.o(.data)
    rt_exception_hook                        0x20000244   Data           4  cpuport.o(.data)
    .data                                    0x20000248   Section      264  dfs.o(.data)
    .data                                    0x20000350   Section       16  core.o(.data)
    device_list                              0x20000350   Data           8  core.o(.data)
    usb_comp_id_desc                         0x20000358   Data           4  core.o(.data)
    usb_comp_id_desc_size                    0x2000035c   Data           4  core.o(.data)
    .data                                    0x20000360   Section       24  usbdevice.o(.data)
    .data                                    0x20000378   Section      156  winusb.o(.data)
    dev_desc                                 0x20000378   Data          18  winusb.o(.data)
    dev_qualifier                            0x2000038a   Data          10  winusb.o(.data)
    _ustring                                 0x200003ac   Data          28  winusb.o(.data)
    cmd_func                                 0x20000400   Data           4  winusb.o(.data)
    ops                                      0x20000404   Data          12  winusb.o(.data)
    data                                     0x20000410   Data           4  winusb.o(.data)
    .data                                    0x20000414   Section        4  shell.o(.data)
    .data                                    0x20000418   Section       16  symbol.o(.data)
    .data                                    0x20000428   Section        4  stdio.o(.data)
    std_fd                                   0x20000428   Data           4  stdio.o(.data)
    .data                                    0x2000042c   Section        4  stdio_streams.o(.data)
    .data                                    0x20000430   Section        4  stdio_streams.o(.data)
    .data                                    0x20000434   Section        4  stdio_streams.o(.data)
    .bss                                     0x20000438   Section    32768  main.o(.bss)
    ramfs_pool                               0x20000438   Data       32768  main.o(.bss)
    .bss                                     0x20008438   Section     4860  usb_winusb.o(.bss)
    rx_completion                            0x20008438   Data          12  usb_winusb.o(.bss)
    tx_completion                            0x20008444   Data          12  usb_winusb.o(.bss)
    usb_mq                                   0x20008450   Data          52  usb_winusb.o(.bss)
    usb_mq_pool                              0x20008484   Data         560  usb_winusb.o(.bss)
    usb_thread                               0x200086b4   Data         128  usb_winusb.o(.bss)
    usb_thread_stack                         0x20008734   Data        4096  usb_winusb.o(.bss)
    .bss                                     0x20009734   Section      164  drv_usart.o(.bss)
    uart3                                    0x20009734   Data          68  drv_usart.o(.bss)
    .bss                                     0x200097d8   Section     1176  drv_usbd.o(.bss)
    _stm_pcd                                 0x200097d8   Data        1024  drv_usbd.o(.bss)
    _stm_udc                                 0x20009bd8   Data         152  drv_usbd.o(.bss)
    .bss                                     0x20009c70   Section      384  idle.o(.bss)
    idle                                     0x20009c70   Data         128  idle.o(.bss)
    rt_thread_stack                          0x20009cf0   Data         256  idle.o(.bss)
    .bss                                     0x20009df0   Section      128  kservice.o(.bss)
    rt_log_buf                               0x20009df0   Data         128  kservice.o(.bss)
    .bss                                     0x20009e70   Section       32  mem.o(.bss)
    heap_sem                                 0x20009e70   Data          32  mem.o(.bss)
    .bss                                     0x20009e90   Section      256  scheduler.o(.bss)
    .bss                                     0x20009f90   Section      196  dfs.o(.bss)
    fslock                                   0x20009fb0   Data          36  dfs.o(.bss)
    .bss                                     0x2000a054   Section      292  dfs_file.o(.bss)
    fd                                       0x2000a054   Data          32  dfs_file.o(.bss)
    dirent                                   0x2000a074   Data         260  dfs_file.o(.bss)
    .bss                                     0x2000a178   Section       80  pin.o(.bss)
    _hw_pin                                  0x2000a178   Data          80  pin.o(.bss)
    .bss                                     0x2000a1c8   Section     1268  core.o(.bss)
    usb_mq                                   0x2000a1c8   Data          52  core.o(.bss)
    usb_thread_stack                         0x2000a1fc   Data         512  core.o(.bss)
    usb_thread                               0x2000a3fc   Data         128  core.o(.bss)
    usb_mq_pool                              0x2000a47c   Data         576  core.o(.bss)
    .bss                                     0x2000a6bc   Section     4353  shell.o(.bss)
    finsh_thread                             0x2000a6bc   Data         128  shell.o(.bss)
    finsh_thread_stack                       0x2000a73c   Data        4096  shell.o(.bss)
    finsh_prompt                             0x2000b73c   Data         129  shell.o(.bss)
    .bss                                     0x2000b7c0   Section       84  stdio_streams.o(.bss)
    .bss                                     0x2000b814   Section       84  stdio_streams.o(.bss)
    .bss                                     0x2000b868   Section       84  stdio_streams.o(.bss)
    .bss                                     0x2000b8bc   Section       96  libspace.o(.bss)
    HEAP                                     0x2000b920   Section      512  startup_stm32f412zx.o(HEAP)
    Heap_Mem                                 0x2000b920   Data         512  startup_stm32f412zx.o(HEAP)
    STACK                                    0x2000bb20   Section     1024  startup_stm32f412zx.o(STACK)
    Stack_Mem                                0x2000bb20   Data        1024  startup_stm32f412zx.o(STACK)
    __initial_sp                             0x2000bf20   Data           0  startup_stm32f412zx.o(STACK)

    Global Symbols

    Symbol Name                              Value     Ov Type        Size  Object(Section)

    BuildAttributes$$THM_ISAv4$E$P$D$K$B$S$7EM$VFPi3$EXTD16$VFPS$VFMA$PE$A:L22UL41UL21$X:L11$S22US41US21$IEEE1$IW$USESV6$~STKCKD$USESV7$~SHL$OSPACE$ROPI$EBA8$UX$STANDARDLIB$REQ8$PRES8$EABIv2 0x00000000   Number         0  anon$$obj.o ABSOLUTE
    __ARM_use_no_argv                        0x00000000   Number         0  main.o ABSOLUTE
    __ARM_exceptions_init                     - Undefined Weak Reference
    __alloca_initialize                       - Undefined Weak Reference
    __arm_preinit_                            - Undefined Weak Reference
    __cpp_initialize__aeabi_                  - Undefined Weak Reference
    __cxa_finalize                            - Undefined Weak Reference
    __rt_locale                               - Undefined Weak Reference
    __sigvec_lookup                           - Undefined Weak Reference
    _atexit_init                              - Undefined Weak Reference
    _call_atexit_fns                          - Undefined Weak Reference
    _clock_init                               - Undefined Weak Reference
    _fp_trap_init                             - Undefined Weak Reference
    _fp_trap_shutdown                         - Undefined Weak Reference
    _get_lc_collate                           - Undefined Weak Reference
    _get_lc_ctype                             - Undefined Weak Reference
    _get_lc_monetary                          - Undefined Weak Reference
    _get_lc_numeric                           - Undefined Weak Reference
    _get_lc_time                              - Undefined Weak Reference
    _getenv_init                              - Undefined Weak Reference
    _handle_redirection                       - Undefined Weak Reference
    _init_alloc                               - Undefined Weak Reference
    _init_user_alloc                          - Undefined Weak Reference
    _mutex_acquire                            - Undefined Weak Reference
    _mutex_free                               - Undefined Weak Reference
    _mutex_release                            - Undefined Weak Reference
    _printf_mbtowc                            - Undefined Weak Reference
    _printf_post_padding                      - Undefined Weak Reference
    _printf_pre_padding                       - Undefined Weak Reference
    _rand_init                                - Undefined Weak Reference
    _signal_finish                            - Undefined Weak Reference
    _signal_init                              - Undefined Weak Reference
    _terminate_alloc                          - Undefined Weak Reference
    _terminate_user_alloc                     - Undefined Weak Reference
    __Vectors_Size                           0x000001c4   Number         0  startup_stm32f412zx.o ABSOLUTE
    __Vectors                                0x08000000   Data           4  startup_stm32f412zx.o(RESET)
    __Vectors_End                            0x080001c4   Data           0  startup_stm32f412zx.o(RESET)
    __main                                   0x080001c5   Thumb Code     8  __main.o(!!!main)
    __scatterload                            0x080001cd   Thumb Code     0  __scatter.o(!!!scatter)
    __scatterload_rt2                        0x080001cd   Thumb Code    44  __scatter.o(!!!scatter)
    __scatterload_rt2_thumb_only             0x080001cd   Thumb Code     0  __scatter.o(!!!scatter)
    __scatterload_null                       0x080001db   Thumb Code     0  __scatter.o(!!!scatter)
    __decompress                             0x08000201   Thumb Code    90  __dczerorl2.o(!!dczerorl2)
    __decompress1                            0x08000201   Thumb Code     0  __dczerorl2.o(!!dczerorl2)
    __scatterload_zeroinit                   0x0800025d   Thumb Code    28  __scatter_zi.o(!!handler_zi)
    _printf_percent                          0x08000279   Thumb Code     0  _printf_percent.o(.ARM.Collect$$_printf_percent$$00000000)
    _printf_s                                0x08000279   Thumb Code     0  _printf_s.o(.ARM.Collect$$_printf_percent$$00000014)
    _printf_percent_end                      0x0800027f   Thumb Code     0  _printf_percent_end.o(.ARM.Collect$$_printf_percent$$00000017)
    __rt_lib_init                            0x08000283   Thumb Code     0  libinit.o(.ARM.Collect$$libinit$$00000000)
    __rt_lib_init_fp_1                       0x08000285   Thumb Code     0  libinit2.o(.ARM.Collect$$libinit$$00000001)
    __rt_lib_init_atexit_1                   0x08000289   Thumb Code     0  libinit2.o(.ARM.Collect$$libinit$$0000001B)
    __rt_lib_init_clock_1                    0x08000289   Thumb Code     0  libinit2.o(.ARM.Collect$$libinit$$00000021)
    __rt_lib_init_fp_trap_1                  0x08000289   Thumb Code     0  libinit2.o(.ARM.Collect$$libinit$$0000001F)
    __rt_lib_init_getenv_1                   0x08000289   Thumb Code     0  libinit2.o(.ARM.Collect$$libinit$$00000023)
    __rt_lib_init_heap_1                     0x08000289   Thumb Code     0  libinit2.o(.ARM.Collect$$libinit$$0000000A)
    __rt_lib_init_lc_collate_1               0x08000289   Thumb Code     0  libinit2.o(.ARM.Collect$$libinit$$00000011)
    __rt_lib_init_lc_ctype_1                 0x08000289   Thumb Code     0  libinit2.o(.ARM.Collect$$libinit$$00000013)
    __rt_lib_init_lc_monetary_1              0x08000289   Thumb Code     0  libinit2.o(.ARM.Collect$$libinit$$00000015)
    __rt_lib_init_lc_numeric_1               0x08000289   Thumb Code     0  libinit2.o(.ARM.Collect$$libinit$$00000017)
    __rt_lib_init_lc_time_1                  0x08000289   Thumb Code     0  libinit2.o(.ARM.Collect$$libinit$$00000019)
    __rt_lib_init_preinit_1                  0x08000289   Thumb Code     0  libinit2.o(.ARM.Collect$$libinit$$00000004)
    __rt_lib_init_rand_1                     0x08000289   Thumb Code     0  libinit2.o(.ARM.Collect$$libinit$$0000000E)
    __rt_lib_init_signal_1                   0x08000289   Thumb Code     0  libinit2.o(.ARM.Collect$$libinit$$0000001D)
    __rt_lib_init_stdio_2                    0x08000289   Thumb Code     0  libinit2.o(.ARM.Collect$$libinit$$00000024)
    __rt_lib_init_user_alloc_1               0x08000289   Thumb Code     0  libinit2.o(.ARM.Collect$$libinit$$0000000C)
    __rt_lib_init_alloca_1                   0x0800028d   Thumb Code     0  libinit2.o(.ARM.Collect$$libinit$$0000002E)
    __rt_lib_init_argv_1                     0x0800028d   Thumb Code     0  libinit2.o(.ARM.Collect$$libinit$$0000002C)
    __rt_lib_init_cpp_1                      0x0800028d   Thumb Code     0  libinit2.o(.ARM.Collect$$libinit$$00000032)
    __rt_lib_init_exceptions_1               0x0800028d   Thumb Code     0  libinit2.o(.ARM.Collect$$libinit$$00000030)
    __rt_lib_init_return                     0x0800028d   Thumb Code     0  libinit2.o(.ARM.Collect$$libinit$$00000033)
    __rt_lib_init_stdio_1                    0x0800028d   Thumb Code     0  libinit2.o(.ARM.Collect$$libinit$$00000025)
    __rt_lib_shutdown                        0x0800028f   Thumb Code     0  libshutdown.o(.ARM.Collect$$libshutdown$$00000000)
    __rt_lib_shutdown_cpp_1                  0x08000291   Thumb Code     0  libshutdown2.o(.ARM.Collect$$libshutdown$$00000002)
    __rt_lib_shutdown_stdio_2                0x08000291   Thumb Code     0  libshutdown2.o(.ARM.Collect$$libshutdown$$00000003)
    __rt_lib_shutdown_fp_trap_1              0x08000295   Thumb Code     0  libshutdown2.o(.ARM.Collect$$libshutdown$$00000007)
    __rt_lib_shutdown_heap_1                 0x08000295   Thumb Code     0  libshutdown2.o(.ARM.Collect$$libshutdown$$0000000F)
    __rt_lib_shutdown_return                 0x08000295   Thumb Code     0  libshutdown2.o(.ARM.Collect$$libshutdown$$00000010)
    __rt_lib_shutdown_signal_1               0x08000295   Thumb Code     0  libshutdown2.o(.ARM.Collect$$libshutdown$$0000000A)
    __rt_lib_shutdown_stdio_1                0x08000295   Thumb Code     0  libshutdown2.o(.ARM.Collect$$libshutdown$$00000004)
    __rt_lib_shutdown_user_alloc_1           0x08000295   Thumb Code     0  libshutdown2.o(.ARM.Collect$$libshutdown$$0000000C)
    __rt_entry                               0x08000297   Thumb Code     0  __rtentry.o(.ARM.Collect$$rtentry$$00000000)
    __rt_entry_presh_1                       0x08000297   Thumb Code     0  __rtentry2.o(.ARM.Collect$$rtentry$$00000002)
    __rt_entry_sh                            0x08000297   Thumb Code     0  __rtentry4.o(.ARM.Collect$$rtentry$$00000004)
    __rt_entry_li                            0x0800029d   Thumb Code     0  __rtentry2.o(.ARM.Collect$$rtentry$$0000000A)
    __rt_entry_postsh_1                      0x0800029d   Thumb Code     0  __rtentry2.o(.ARM.Collect$$rtentry$$00000009)
    __rt_entry_main                          0x080002a1   Thumb Code     0  __rtentry2.o(.ARM.Collect$$rtentry$$0000000D)
    __rt_entry_postli_1                      0x080002a1   Thumb Code     0  __rtentry2.o(.ARM.Collect$$rtentry$$0000000C)
    __rt_exit                                0x080002a9   Thumb Code     0  rtexit.o(.ARM.Collect$$rtexit$$00000000)
    __rt_exit_ls                             0x080002ab   Thumb Code     0  rtexit2.o(.ARM.Collect$$rtexit$$00000003)
    __rt_exit_prels_1                        0x080002ab   Thumb Code     0  rtexit2.o(.ARM.Collect$$rtexit$$00000002)
    __rt_exit_exit                           0x080002af   Thumb Code     0  rtexit2.o(.ARM.Collect$$rtexit$$00000004)
    $Super$$main                             0x080002b5   Thumb Code    32  main.o(.text)
    SysTick_Handler                          0x080006cd   Thumb Code    20  board.o(.text)
    HAL_InitTick                             0x080006e1   Thumb Code    34  board.o(.text)
    HAL_Delay                                0x08000703   Thumb Code    10  board.o(.text)
    HAL_SuspendTick                          0x0800070d   Thumb Code     2  board.o(.text)
    HAL_ResumeTick                           0x0800070f   Thumb Code     2  board.o(.text)
    HAL_MspInit                              0x08000711   Thumb Code    86  board.o(.text)
    rt_hw_board_init                         0x08000767   Thumb Code    30  board.o(.text)
    NMI_Handler                              0x0800079d   Thumb Code     2  stm32f4xx_it.o(.text)
    MemManage_Handler                        0x0800079f   Thumb Code     4  stm32f4xx_it.o(.text)
    BusFault_Handler                         0x080007a3   Thumb Code     4  stm32f4xx_it.o(.text)
    UsageFault_Handler                       0x080007a7   Thumb Code     4  stm32f4xx_it.o(.text)
    SVC_Handler                              0x080007ab   Thumb Code     2  stm32f4xx_it.o(.text)
    get_pin                                  0x080008a9   Thumb Code    26  drv_gpio.o(.text)
    stm32_pin_write                          0x080008c3   Thumb Code    40  drv_gpio.o(.text)
    stm32_pin_read                           0x080008eb   Thumb Code    42  drv_gpio.o(.text)
    stm32_pin_mode                           0x08000915   Thumb Code   120  drv_gpio.o(.text)
    stm32_pin_attach_irq                     0x080009ab   Thumb Code   216  drv_gpio.o(.text)
    stm32_pin_dettach_irq                    0x08000a83   Thumb Code   134  drv_gpio.o(.text)
    stm32_pin_irq_enable                     0x08000b09   Thumb Code   272  drv_gpio.o(.text)
    rt_hw_pin_init                           0x08000c19   Thumb Code    18  drv_gpio.o(.text)
    HAL_GPIO_EXTI_Callback                   0x08000c2b   Thumb Code    54  drv_gpio.o(.text)
    EXTI0_IRQHandler                         0x08000c61   Thumb Code    18  drv_gpio.o(.text)
    EXTI1_IRQHandler                         0x08000c73   Thumb Code    18  drv_gpio.o(.text)
    EXTI2_IRQHandler                         0x08000c85   Thumb Code    18  drv_gpio.o(.text)
    EXTI3_IRQHandler                         0x08000c97   Thumb Code    18  drv_gpio.o(.text)
    EXTI4_IRQHandler                         0x08000ca9   Thumb Code    18  drv_gpio.o(.text)
    EXTI9_5_IRQHandler                       0x08000cbb   Thumb Code    46  drv_gpio.o(.text)
    EXTI15_10_IRQHandler                     0x08000ce9   Thumb Code    60  drv_gpio.o(.text)
    USART3_IRQHandler                        0x08000ebf   Thumb Code    50  drv_usart.o(.text)
    HAL_UART_MspInit                         0x08000ef1   Thumb Code   444  drv_usart.o(.text)
    HAL_UART_MspDeInit                       0x080010ad   Thumb Code   232  drv_usart.o(.text)
    hw_usart_init                            0x08001195   Thumb Code    54  drv_usart.o(.text)
    OTG_FS_IRQHandler                        0x080011e9   Thumb Code    18  drv_usbd.o(.text)
    HAL_PCD_ResetCallback                    0x080011fb   Thumb Code    36  drv_usbd.o(.text)
    HAL_PCD_SetupStageCallback               0x0800121f   Thumb Code    16  drv_usbd.o(.text)
    HAL_PCD_DataInStageCallback              0x0800122f   Thumb Code    42  drv_usbd.o(.text)
    HAL_PCD_ConnectCallback                  0x08001259   Thumb Code    12  drv_usbd.o(.text)
    HAL_PCD_SOFCallback                      0x08001265   Thumb Code    12  drv_usbd.o(.text)
    HAL_PCD_DisconnectCallback               0x08001271   Thumb Code    12  drv_usbd.o(.text)
    HAL_PCD_DataOutStageCallback             0x0800127d   Thumb Code    46  drv_usbd.o(.text)
    HAL_PCDEx_SetConnectionState             0x080012ab   Thumb Code     2  drv_usbd.o(.text)
    HAL_PCD_MspInit                          0x080012ad   Thumb Code   152  drv_usbd.o(.text)
    HAL_PCD_MspDeInit                        0x08001345   Thumb Code    46  drv_usbd.o(.text)
    stm_usbd_register                        0x080014d1   Thumb Code    60  drv_usbd.o(.text)
    SystemInit                               0x08001579   Thumb Code    82  system_stm32f4xx.o(.text)
    SystemCoreClockUpdate                    0x080015cb   Thumb Code   174  system_stm32f4xx.o(.text)
    Reset_Handler                            0x08001699   Thumb Code     8  startup_stm32f412zx.o(.text)
    DebugMon_Handler                         0x080016ad   Thumb Code     2  startup_stm32f412zx.o(.text)
    ADC_IRQHandler                           0x080016b3   Thumb Code     0  startup_stm32f412zx.o(.text)
    CAN1_RX0_IRQHandler                      0x080016b3   Thumb Code     0  startup_stm32f412zx.o(.text)
    CAN1_RX1_IRQHandler                      0x080016b3   Thumb Code     0  startup_stm32f412zx.o(.text)
    CAN1_SCE_IRQHandler                      0x080016b3   Thumb Code     0  startup_stm32f412zx.o(.text)
    CAN1_TX_IRQHandler                       0x080016b3   Thumb Code     0  startup_stm32f412zx.o(.text)
    CAN2_RX0_IRQHandler                      0x080016b3   Thumb Code     0  startup_stm32f412zx.o(.text)
    CAN2_RX1_IRQHandler                      0x080016b3   Thumb Code     0  startup_stm32f412zx.o(.text)
    CAN2_SCE_IRQHandler                      0x080016b3   Thumb Code     0  startup_stm32f412zx.o(.text)
    CAN2_TX_IRQHandler                       0x080016b3   Thumb Code     0  startup_stm32f412zx.o(.text)
    DFSDM1_FLT0_IRQHandler                   0x080016b3   Thumb Code     0  startup_stm32f412zx.o(.text)
    DFSDM1_FLT1_IRQHandler                   0x080016b3   Thumb Code     0  startup_stm32f412zx.o(.text)
    DMA1_Stream0_IRQHandler                  0x080016b3   Thumb Code     0  startup_stm32f412zx.o(.text)
    DMA1_Stream1_IRQHandler                  0x080016b3   Thumb Code     0  startup_stm32f412zx.o(.text)
    DMA1_Stream2_IRQHandler                  0x080016b3   Thumb Code     0  startup_stm32f412zx.o(.text)
    DMA1_Stream3_IRQHandler                  0x080016b3   Thumb Code     0  startup_stm32f412zx.o(.text)
    DMA1_Stream4_IRQHandler                  0x080016b3   Thumb Code     0  startup_stm32f412zx.o(.text)
    DMA1_Stream5_IRQHandler                  0x080016b3   Thumb Code     0  startup_stm32f412zx.o(.text)
    DMA1_Stream6_IRQHandler                  0x080016b3   Thumb Code     0  startup_stm32f412zx.o(.text)
    DMA1_Stream7_IRQHandler                  0x080016b3   Thumb Code     0  startup_stm32f412zx.o(.text)
    DMA2_Stream0_IRQHandler                  0x080016b3   Thumb Code     0  startup_stm32f412zx.o(.text)
    DMA2_Stream1_IRQHandler                  0x080016b3   Thumb Code     0  startup_stm32f412zx.o(.text)
    DMA2_Stream2_IRQHandler                  0x080016b3   Thumb Code     0  startup_stm32f412zx.o(.text)
    DMA2_Stream3_IRQHandler                  0x080016b3   Thumb Code     0  startup_stm32f412zx.o(.text)
    DMA2_Stream4_IRQHandler                  0x080016b3   Thumb Code     0  startup_stm32f412zx.o(.text)
    DMA2_Stream5_IRQHandler                  0x080016b3   Thumb Code     0  startup_stm32f412zx.o(.text)
    DMA2_Stream6_IRQHandler                  0x080016b3   Thumb Code     0  startup_stm32f412zx.o(.text)
    DMA2_Stream7_IRQHandler                  0x080016b3   Thumb Code     0  startup_stm32f412zx.o(.text)
    FLASH_IRQHandler                         0x080016b3   Thumb Code     0  startup_stm32f412zx.o(.text)
    FMPI2C1_ER_IRQHandler                    0x080016b3   Thumb Code     0  startup_stm32f412zx.o(.text)
    FMPI2C1_EV_IRQHandler                    0x080016b3   Thumb Code     0  startup_stm32f412zx.o(.text)
    FPU_IRQHandler                           0x080016b3   Thumb Code     0  startup_stm32f412zx.o(.text)
    I2C1_ER_IRQHandler                       0x080016b3   Thumb Code     0  startup_stm32f412zx.o(.text)
    I2C1_EV_IRQHandler                       0x080016b3   Thumb Code     0  startup_stm32f412zx.o(.text)
    I2C2_ER_IRQHandler                       0x080016b3   Thumb Code     0  startup_stm32f412zx.o(.text)
    I2C2_EV_IRQHandler                       0x080016b3   Thumb Code     0  startup_stm32f412zx.o(.text)
    I2C3_ER_IRQHandler                       0x080016b3   Thumb Code     0  startup_stm32f412zx.o(.text)
    I2C3_EV_IRQHandler                       0x080016b3   Thumb Code     0  startup_stm32f412zx.o(.text)
    OTG_FS_WKUP_IRQHandler                   0x080016b3   Thumb Code     0  startup_stm32f412zx.o(.text)
    PVD_IRQHandler                           0x080016b3   Thumb Code     0  startup_stm32f412zx.o(.text)
    QUADSPI_IRQHandler                       0x080016b3   Thumb Code     0  startup_stm32f412zx.o(.text)
    RCC_IRQHandler                           0x080016b3   Thumb Code     0  startup_stm32f412zx.o(.text)
    RNG_IRQHandler                           0x080016b3   Thumb Code     0  startup_stm32f412zx.o(.text)
    RTC_Alarm_IRQHandler                     0x080016b3   Thumb Code     0  startup_stm32f412zx.o(.text)
    RTC_WKUP_IRQHandler                      0x080016b3   Thumb Code     0  startup_stm32f412zx.o(.text)
    SDIO_IRQHandler                          0x080016b3   Thumb Code     0  startup_stm32f412zx.o(.text)
    SPI1_IRQHandler                          0x080016b3   Thumb Code     0  startup_stm32f412zx.o(.text)
    SPI2_IRQHandler                          0x080016b3   Thumb Code     0  startup_stm32f412zx.o(.text)
    SPI3_IRQHandler                          0x080016b3   Thumb Code     0  startup_stm32f412zx.o(.text)
    SPI4_IRQHandler                          0x080016b3   Thumb Code     0  startup_stm32f412zx.o(.text)
    SPI5_IRQHandler                          0x080016b3   Thumb Code     0  startup_stm32f412zx.o(.text)
    TAMP_STAMP_IRQHandler                    0x080016b3   Thumb Code     0  startup_stm32f412zx.o(.text)
    TIM1_BRK_TIM9_IRQHandler                 0x080016b3   Thumb Code     0  startup_stm32f412zx.o(.text)
    TIM1_CC_IRQHandler                       0x080016b3   Thumb Code     0  startup_stm32f412zx.o(.text)
    TIM1_TRG_COM_TIM11_IRQHandler            0x080016b3   Thumb Code     0  startup_stm32f412zx.o(.text)
    TIM1_UP_TIM10_IRQHandler                 0x080016b3   Thumb Code     0  startup_stm32f412zx.o(.text)
    TIM2_IRQHandler                          0x080016b3   Thumb Code     0  startup_stm32f412zx.o(.text)
    TIM3_IRQHandler                          0x080016b3   Thumb Code     0  startup_stm32f412zx.o(.text)
    TIM4_IRQHandler                          0x080016b3   Thumb Code     0  startup_stm32f412zx.o(.text)
    TIM5_IRQHandler                          0x080016b3   Thumb Code     0  startup_stm32f412zx.o(.text)
    TIM6_IRQHandler                          0x080016b3   Thumb Code     0  startup_stm32f412zx.o(.text)
    TIM7_IRQHandler                          0x080016b3   Thumb Code     0  startup_stm32f412zx.o(.text)
    TIM8_BRK_TIM12_IRQHandler                0x080016b3   Thumb Code     0  startup_stm32f412zx.o(.text)
    TIM8_CC_IRQHandler                       0x080016b3   Thumb Code     0  startup_stm32f412zx.o(.text)
    TIM8_TRG_COM_TIM14_IRQHandler            0x080016b3   Thumb Code     0  startup_stm32f412zx.o(.text)
    TIM8_UP_TIM13_IRQHandler                 0x080016b3   Thumb Code     0  startup_stm32f412zx.o(.text)
    USART1_IRQHandler                        0x080016b3   Thumb Code     0  startup_stm32f412zx.o(.text)
    USART2_IRQHandler                        0x080016b3   Thumb Code     0  startup_stm32f412zx.o(.text)
    USART6_IRQHandler                        0x080016b3   Thumb Code     0  startup_stm32f412zx.o(.text)
    WWDG_IRQHandler                          0x080016b3   Thumb Code     0  startup_stm32f412zx.o(.text)
    __user_initial_stackheap                 0x080016b5   Thumb Code     0  startup_stm32f412zx.o(.text)
    HAL_Init                                 0x080016ff   Thumb Code    54  stm32f4xx_hal.o(.text)
    HAL_MspDeInit                            0x08001735   Thumb Code     2  stm32f4xx_hal.o(.text)
    HAL_DeInit                               0x08001737   Thumb Code    64  stm32f4xx_hal.o(.text)
    HAL_IncTick                              0x08001777   Thumb Code    12  stm32f4xx_hal.o(.text)
    HAL_GetTick                              0x08001783   Thumb Code     6  stm32f4xx_hal.o(.text)
    HAL_GetHalVersion                        0x080017cb   Thumb Code     4  stm32f4xx_hal.o(.text)
    HAL_GetREVID                             0x080017cf   Thumb Code     8  stm32f4xx_hal.o(.text)
    HAL_GetDEVID                             0x080017d7   Thumb Code    10  stm32f4xx_hal.o(.text)
    HAL_DBGMCU_EnableDBGSleepMode            0x080017e1   Thumb Code    14  stm32f4xx_hal.o(.text)
    HAL_DBGMCU_DisableDBGSleepMode           0x080017ef   Thumb Code    14  stm32f4xx_hal.o(.text)
    HAL_DBGMCU_EnableDBGStopMode             0x080017fd   Thumb Code    14  stm32f4xx_hal.o(.text)
    HAL_DBGMCU_DisableDBGStopMode            0x0800180b   Thumb Code    14  stm32f4xx_hal.o(.text)
    HAL_DBGMCU_EnableDBGStandbyMode          0x08001819   Thumb Code    14  stm32f4xx_hal.o(.text)
    HAL_DBGMCU_DisableDBGStandbyMode         0x08001827   Thumb Code    14  stm32f4xx_hal.o(.text)
    HAL_EnableCompensationCell               0x08001835   Thumb Code     8  stm32f4xx_hal.o(.text)
    HAL_DisableCompensationCell              0x0800183d   Thumb Code     8  stm32f4xx_hal.o(.text)
    HAL_GetUID                               0x08001845   Thumb Code    24  stm32f4xx_hal.o(.text)
    HAL_NVIC_SetPriorityGrouping             0x0800189d   Thumb Code    36  stm32f4xx_hal_cortex.o(.text)
    HAL_NVIC_SetPriority                     0x080018c1   Thumb Code   124  stm32f4xx_hal_cortex.o(.text)
    HAL_NVIC_EnableIRQ                       0x0800193d   Thumb Code    26  stm32f4xx_hal_cortex.o(.text)
    HAL_NVIC_DisableIRQ                      0x08001957   Thumb Code    22  stm32f4xx_hal_cortex.o(.text)
    HAL_NVIC_SystemReset                     0x0800196d   Thumb Code    64  stm32f4xx_hal_cortex.o(.text)
    HAL_SYSTICK_Config                       0x080019ad   Thumb Code    52  stm32f4xx_hal_cortex.o(.text)
    HAL_MPU_Disable                          0x080019e1   Thumb Code    42  stm32f4xx_hal_cortex.o(.text)
    HAL_MPU_Enable                           0x08001a0b   Thumb Code    60  stm32f4xx_hal_cortex.o(.text)
    HAL_MPU_ConfigRegion                     0x08001a47   Thumb Code    90  stm32f4xx_hal_cortex.o(.text)
    HAL_NVIC_GetPriorityGrouping             0x08001aa1   Thumb Code     8  stm32f4xx_hal_cortex.o(.text)
    HAL_NVIC_GetPriority                     0x08001aa9   Thumb Code   138  stm32f4xx_hal_cortex.o(.text)
    HAL_NVIC_SetPendingIRQ                   0x08001b33   Thumb Code    24  stm32f4xx_hal_cortex.o(.text)
    HAL_NVIC_GetPendingIRQ                   0x08001b4b   Thumb Code    38  stm32f4xx_hal_cortex.o(.text)
    HAL_NVIC_ClearPendingIRQ                 0x08001b71   Thumb Code    22  stm32f4xx_hal_cortex.o(.text)
    HAL_NVIC_GetActive                       0x08001b87   Thumb Code    38  stm32f4xx_hal_cortex.o(.text)
    HAL_SYSTICK_CLKSourceConfig              0x08001bad   Thumb Code    40  stm32f4xx_hal_cortex.o(.text)
    HAL_SYSTICK_Callback                     0x08001bd5   Thumb Code     2  stm32f4xx_hal_cortex.o(.text)
    HAL_SYSTICK_IRQHandler                   0x08001bd7   Thumb Code     8  stm32f4xx_hal_cortex.o(.text)
    HAL_DMA_Init                             0x08001cd9   Thumb Code   232  stm32f4xx_hal_dma.o(.text)
    HAL_DMA_DeInit                           0x08001dc1   Thumb Code    98  stm32f4xx_hal_dma.o(.text)
    HAL_DMA_Start                            0x08001e4f   Thumb Code   102  stm32f4xx_hal_dma.o(.text)
    HAL_DMA_Start_IT                         0x08001eb5   Thumb Code   158  stm32f4xx_hal_dma.o(.text)
    HAL_DMA_Abort                            0x08001f53   Thumb Code   178  stm32f4xx_hal_dma.o(.text)
    HAL_DMA_Abort_IT                         0x08002005   Thumb Code    40  stm32f4xx_hal_dma.o(.text)
    HAL_DMA_PollForTransfer                  0x0800202d   Thumb Code   346  stm32f4xx_hal_dma.o(.text)
    HAL_DMA_IRQHandler                       0x08002187   Thumb Code   570  stm32f4xx_hal_dma.o(.text)
    HAL_DMA_RegisterCallback                 0x080023c1   Thumb Code    94  stm32f4xx_hal_dma.o(.text)
    HAL_DMA_UnRegisterCallback               0x0800241f   Thumb Code   124  stm32f4xx_hal_dma.o(.text)
    HAL_DMA_GetState                         0x0800249b   Thumb Code     8  stm32f4xx_hal_dma.o(.text)
    HAL_DMA_GetError                         0x080024a3   Thumb Code     6  stm32f4xx_hal_dma.o(.text)
    HAL_GPIO_Init                            0x080024ad   Thumb Code   456  stm32f4xx_hal_gpio.o(.text)
    HAL_GPIO_DeInit                          0x08002675   Thumb Code   304  stm32f4xx_hal_gpio.o(.text)
    HAL_GPIO_ReadPin                         0x080027a5   Thumb Code    16  stm32f4xx_hal_gpio.o(.text)
    HAL_GPIO_WritePin                        0x080027b5   Thumb Code    12  stm32f4xx_hal_gpio.o(.text)
    HAL_GPIO_TogglePin                       0x080027c1   Thumb Code     8  stm32f4xx_hal_gpio.o(.text)
    HAL_GPIO_LockPin                         0x080027c9   Thumb Code    46  stm32f4xx_hal_gpio.o(.text)
    HAL_GPIO_EXTI_IRQHandler                 0x080027f9   Thumb Code    28  stm32f4xx_hal_gpio.o(.text)
    HAL_PCD_Init                             0x0800283f   Thumb Code   346  stm32f4xx_hal_pcd.o(.text)
    HAL_PCD_Stop                             0x0800299b   Thumb Code    58  stm32f4xx_hal_pcd.o(.text)
    HAL_PCD_DeInit                           0x080029d5   Thumb Code    38  stm32f4xx_hal_pcd.o(.text)
    HAL_PCD_Start                            0x080029fb   Thumb Code    52  stm32f4xx_hal_pcd.o(.text)
    HAL_PCD_ISOOUTIncompleteCallback         0x08002a33   Thumb Code     2  stm32f4xx_hal_pcd.o(.text)
    HAL_PCD_ISOINIncompleteCallback          0x08002a35   Thumb Code     2  stm32f4xx_hal_pcd.o(.text)
    HAL_PCD_SuspendCallback                  0x08002a3b   Thumb Code     2  stm32f4xx_hal_pcd.o(.text)
    HAL_PCD_ResumeCallback                   0x08002a3d   Thumb Code     2  stm32f4xx_hal_pcd.o(.text)
    HAL_PCD_IRQHandler                       0x08002ae7   Thumb Code  1762  stm32f4xx_hal_pcd.o(.text)
    HAL_PCD_DevConnect                       0x080031c9   Thumb Code    46  stm32f4xx_hal_pcd.o(.text)
    HAL_PCD_DevDisconnect                    0x080031f7   Thumb Code    46  stm32f4xx_hal_pcd.o(.text)
    HAL_PCD_SetAddress                       0x08003225   Thumb Code    50  stm32f4xx_hal_pcd.o(.text)
    HAL_PCD_EP_Open                          0x08003257   Thumb Code   140  stm32f4xx_hal_pcd.o(.text)
    HAL_PCD_EP_Close                         0x080032e3   Thumb Code   146  stm32f4xx_hal_pcd.o(.text)
    HAL_PCD_EP_Receive                       0x08003375   Thumb Code    88  stm32f4xx_hal_pcd.o(.text)
    HAL_PCD_EP_GetRxCount                    0x080033cd   Thumb Code    24  stm32f4xx_hal_pcd.o(.text)
    HAL_PCD_EP_Transmit                      0x080033e5   Thumb Code    90  stm32f4xx_hal_pcd.o(.text)
    HAL_PCD_EP_SetStall                      0x0800343f   Thumb Code   122  stm32f4xx_hal_pcd.o(.text)
    HAL_PCD_EP_ClrStall                      0x080034b9   Thumb Code   104  stm32f4xx_hal_pcd.o(.text)
    HAL_PCD_EP_Flush                         0x08003521   Thumb Code    68  stm32f4xx_hal_pcd.o(.text)
    HAL_PCD_ActivateRemoteWakeup             0x08003565   Thumb Code    36  stm32f4xx_hal_pcd.o(.text)
    HAL_PCD_DeActivateRemoteWakeup           0x08003589   Thumb Code    24  stm32f4xx_hal_pcd.o(.text)
    HAL_PCD_GetState                         0x080035a1   Thumb Code     8  stm32f4xx_hal_pcd.o(.text)
    HAL_PCDEx_SetTxFiFo                      0x080035a9   Thumb Code    82  stm32f4xx_hal_pcd_ex.o(.text)
    HAL_PCDEx_SetRxFiFo                      0x080035fb   Thumb Code    10  stm32f4xx_hal_pcd_ex.o(.text)
    HAL_PCDEx_ActivateLPM                    0x08003605   Thumb Code    36  stm32f4xx_hal_pcd_ex.o(.text)
    HAL_PCDEx_DeActivateLPM                  0x08003629   Thumb Code    32  stm32f4xx_hal_pcd_ex.o(.text)
    HAL_PCDEx_LPM_Callback                   0x08003649   Thumb Code     2  stm32f4xx_hal_pcd_ex.o(.text)
    HAL_PCDEx_BCD_Callback                   0x0800364b   Thumb Code     2  stm32f4xx_hal_pcd_ex.o(.text)
    HAL_PCDEx_BCD_VBUSDetect                 0x0800364d   Thumb Code   190  stm32f4xx_hal_pcd_ex.o(.text)
    HAL_PCDEx_ActivateBCD                    0x0800370b   Thumb Code    22  stm32f4xx_hal_pcd_ex.o(.text)
    HAL_PCDEx_DeActivateBCD                  0x08003721   Thumb Code    22  stm32f4xx_hal_pcd_ex.o(.text)
    HAL_RCC_GetSysClockFreq                  0x08003b51   Thumb Code   162  stm32f4xx_hal_rcc.o(.text)
    HAL_RCC_ClockConfig                      0x08003bf3   Thumb Code   366  stm32f4xx_hal_rcc.o(.text)
    HAL_RCC_MCOConfig                        0x08003d61   Thumb Code   178  stm32f4xx_hal_rcc.o(.text)
    HAL_RCC_EnableCSS                        0x08003e13   Thumb Code     8  stm32f4xx_hal_rcc.o(.text)
    HAL_RCC_DisableCSS                       0x08003e1b   Thumb Code     8  stm32f4xx_hal_rcc.o(.text)
    HAL_RCC_GetHCLKFreq                      0x08003e23   Thumb Code     6  stm32f4xx_hal_rcc.o(.text)
    HAL_RCC_GetPCLK1Freq                     0x08003e29   Thumb Code    22  stm32f4xx_hal_rcc.o(.text)
    HAL_RCC_GetPCLK2Freq                     0x08003e3f   Thumb Code    22  stm32f4xx_hal_rcc.o(.text)
    HAL_RCC_GetClockConfig                   0x08003f75   Thumb Code    58  stm32f4xx_hal_rcc.o(.text)
    HAL_RCC_CSSCallback                      0x08003faf   Thumb Code     2  stm32f4xx_hal_rcc.o(.text)
    HAL_RCC_NMI_IRQHandler                   0x08003fb1   Thumb Code    30  stm32f4xx_hal_rcc.o(.text)
    HAL_RCCEx_PeriphCLKConfig                0x08003fd9   Thumb Code   748  stm32f4xx_hal_rcc_ex.o(.text)
    HAL_RCCEx_GetPeriphCLKConfig             0x080042c5   Thumb Code   180  stm32f4xx_hal_rcc_ex.o(.text)
    HAL_RCCEx_GetPeriphCLKFreq               0x08004379   Thumb Code   558  stm32f4xx_hal_rcc_ex.o(.text)
    HAL_RCCEx_SelectLSEMode                  0x080045a7   Thumb Code    40  stm32f4xx_hal_rcc_ex.o(.text)
    HAL_RCC_DeInit                           0x080045cf   Thumb Code   322  stm32f4xx_hal_rcc_ex.o(.text)
    HAL_RCC_OscConfig                        0x08004711   Thumb Code  1036  stm32f4xx_hal_rcc_ex.o(.text)
    HAL_RCC_GetOscConfig                     0x08004b1d   Thumb Code   268  stm32f4xx_hal_rcc_ex.o(.text)
    HAL_UART_Init                            0x08004f8f   Thumb Code   114  stm32f4xx_hal_uart.o(.text)
    HAL_HalfDuplex_Init                      0x08005001   Thumb Code   128  stm32f4xx_hal_uart.o(.text)
    HAL_LIN_Init                             0x08005081   Thumb Code   142  stm32f4xx_hal_uart.o(.text)
    HAL_MultiProcessor_Init                  0x0800510f   Thumb Code   154  stm32f4xx_hal_uart.o(.text)
    HAL_UART_DeInit                          0x080051ab   Thumb Code    46  stm32f4xx_hal_uart.o(.text)
    HAL_UART_Transmit                        0x08005245   Thumb Code   214  stm32f4xx_hal_uart.o(.text)
    HAL_UART_Receive                         0x0800531b   Thumb Code   222  stm32f4xx_hal_uart.o(.text)
    HAL_UART_Transmit_IT                     0x080053f9   Thumb Code    88  stm32f4xx_hal_uart.o(.text)
    HAL_UART_Receive_IT                      0x08005451   Thumb Code   100  stm32f4xx_hal_uart.o(.text)
    HAL_UART_ErrorCallback                   0x080054b5   Thumb Code     2  stm32f4xx_hal_uart.o(.text)
    HAL_UART_TxHalfCpltCallback              0x0800553b   Thumb Code     2  stm32f4xx_hal_uart.o(.text)
    HAL_UART_TxCpltCallback                  0x0800554b   Thumb Code     2  stm32f4xx_hal_uart.o(.text)
    HAL_UART_Transmit_DMA                    0x08005583   Thumb Code   142  stm32f4xx_hal_uart.o(.text)
    HAL_UART_RxHalfCpltCallback              0x08005611   Thumb Code     2  stm32f4xx_hal_uart.o(.text)
    HAL_UART_RxCpltCallback                  0x08005621   Thumb Code     2  stm32f4xx_hal_uart.o(.text)
    HAL_UART_Receive_DMA                     0x08005669   Thumb Code   182  stm32f4xx_hal_uart.o(.text)
    HAL_UART_DMAPause                        0x0800571f   Thumb Code   124  stm32f4xx_hal_uart.o(.text)
    HAL_UART_DMAResume                       0x0800579b   Thumb Code   126  stm32f4xx_hal_uart.o(.text)
    HAL_UART_DMAStop                         0x08005819   Thumb Code   102  stm32f4xx_hal_uart.o(.text)
    HAL_UART_Abort                           0x0800587f   Thumb Code   126  stm32f4xx_hal_uart.o(.text)
    HAL_UART_AbortTransmit                   0x080058fd   Thumb Code    68  stm32f4xx_hal_uart.o(.text)
    HAL_UART_AbortReceive                    0x08005941   Thumb Code    80  stm32f4xx_hal_uart.o(.text)
    HAL_UART_AbortCpltCallback               0x08005991   Thumb Code     2  stm32f4xx_hal_uart.o(.text)
    HAL_UART_Abort_IT                        0x08005a11   Thumb Code   208  stm32f4xx_hal_uart.o(.text)
    HAL_UART_AbortTransmitCpltCallback       0x08005ae1   Thumb Code     2  stm32f4xx_hal_uart.o(.text)
    HAL_UART_AbortTransmit_IT                0x08005afb   Thumb Code   102  stm32f4xx_hal_uart.o(.text)
    HAL_UART_AbortReceiveCpltCallback        0x08005b61   Thumb Code     2  stm32f4xx_hal_uart.o(.text)
    HAL_UART_AbortReceive_IT                 0x08005b7b   Thumb Code   114  stm32f4xx_hal_uart.o(.text)
    HAL_UART_IRQHandler                      0x08005d23   Thumb Code   348  stm32f4xx_hal_uart.o(.text)
    HAL_LIN_SendBreak                        0x08005e7f   Thumb Code    62  stm32f4xx_hal_uart.o(.text)
    HAL_MultiProcessor_EnterMuteMode         0x08005ebd   Thumb Code    62  stm32f4xx_hal_uart.o(.text)
    HAL_MultiProcessor_ExitMuteMode          0x08005efb   Thumb Code    62  stm32f4xx_hal_uart.o(.text)
    HAL_HalfDuplex_EnableTransmitter         0x08005f39   Thumb Code    68  stm32f4xx_hal_uart.o(.text)
    HAL_HalfDuplex_EnableReceiver            0x08005f7d   Thumb Code    68  stm32f4xx_hal_uart.o(.text)
    HAL_UART_GetState                        0x08005fc1   Thumb Code    20  stm32f4xx_hal_uart.o(.text)
    HAL_UART_GetError                        0x08005fd5   Thumb Code     6  stm32f4xx_hal_uart.o(.text)
    USB_CoreInit                             0x08006023   Thumb Code   108  stm32f4xx_ll_usb.o(.text)
    USB_EnableGlobalInt                      0x0800608f   Thumb Code    14  stm32f4xx_ll_usb.o(.text)
    USB_DisableGlobalInt                     0x0800609d   Thumb Code    14  stm32f4xx_ll_usb.o(.text)
    USB_SetCurrentMode                       0x080060ab   Thumb Code    48  stm32f4xx_ll_usb.o(.text)
    USB_FlushRxFifo                          0x080060db   Thumb Code    38  stm32f4xx_ll_usb.o(.text)
    USB_FlushTxFifo                          0x08006101   Thumb Code    44  stm32f4xx_ll_usb.o(.text)
    USB_SetDevSpeed                          0x0800612d   Thumb Code    16  stm32f4xx_ll_usb.o(.text)
    USB_DevInit                              0x0800613d   Thumb Code   412  stm32f4xx_ll_usb.o(.text)
    USB_GetDevSpeed                          0x080062d9   Thumb Code    68  stm32f4xx_ll_usb.o(.text)
    USB_ActivateEndpoint                     0x0800631d   Thumb Code   220  stm32f4xx_ll_usb.o(.text)
    USB_ActivateDedicatedEndpoint            0x080063f9   Thumb Code   276  stm32f4xx_ll_usb.o(.text)
    USB_DeactivateEndpoint                   0x0800650d   Thumb Code   258  stm32f4xx_ll_usb.o(.text)
    USB_DeactivateDedicatedEndpoint          0x0800660f   Thumb Code   258  stm32f4xx_ll_usb.o(.text)
    USB_WritePacket                          0x08006711   Thumb Code    48  stm32f4xx_ll_usb.o(.text)
    USB_EPStartXfer                          0x08006741   Thumb Code   732  stm32f4xx_ll_usb.o(.text)
    USB_EP0StartXfer                         0x08006a1d   Thumb Code   422  stm32f4xx_ll_usb.o(.text)
    USB_ReadPacket                           0x08006bc3   Thumb Code    34  stm32f4xx_ll_usb.o(.text)
    USB_EPSetStall                           0x08006be5   Thumb Code   140  stm32f4xx_ll_usb.o(.text)
    USB_EPClearStall                         0x08006c71   Thumb Code   140  stm32f4xx_ll_usb.o(.text)
    USB_StopDevice                           0x08006cfd   Thumb Code    82  stm32f4xx_ll_usb.o(.text)
    USB_SetDevAddress                        0x08006d4f   Thumb Code    36  stm32f4xx_ll_usb.o(.text)
    USB_DevConnect                           0x08006d73   Thumb Code    30  stm32f4xx_ll_usb.o(.text)
    USB_DevDisconnect                        0x08006d91   Thumb Code    30  stm32f4xx_ll_usb.o(.text)
    USB_ReadInterrupts                       0x08006daf   Thumb Code    12  stm32f4xx_ll_usb.o(.text)
    USB_ReadDevAllOutEpInterrupt             0x08006dbb   Thumb Code    18  stm32f4xx_ll_usb.o(.text)
    USB_ReadDevAllInEpInterrupt              0x08006dcd   Thumb Code    18  stm32f4xx_ll_usb.o(.text)
    USB_ReadDevOutEPInterrupt                0x08006ddf   Thumb Code    22  stm32f4xx_ll_usb.o(.text)
    USB_ReadDevInEPInterrupt                 0x08006df5   Thumb Code    44  stm32f4xx_ll_usb.o(.text)
    USB_ClearInterrupts                      0x08006e21   Thumb Code     8  stm32f4xx_ll_usb.o(.text)
    USB_GetMode                              0x08006e29   Thumb Code    10  stm32f4xx_ll_usb.o(.text)
    USB_ActivateSetup                        0x08006e33   Thumb Code    68  stm32f4xx_ll_usb.o(.text)
    USB_EP0_OutStart                         0x08006e77   Thumb Code    68  stm32f4xx_ll_usb.o(.text)
    USB_DriveVbus                            0x08006ebb   Thumb Code    68  stm32f4xx_ll_usb.o(.text)
    USB_HostInit                             0x08006eff   Thumb Code   198  stm32f4xx_ll_usb.o(.text)
    USB_InitFSLSPClkSel                      0x08006fc5   Thumb Code    62  stm32f4xx_ll_usb.o(.text)
    USB_ResetPort                            0x08007003   Thumb Code    48  stm32f4xx_ll_usb.o(.text)
    USB_GetHostSpeed                         0x08007033   Thumb Code    18  stm32f4xx_ll_usb.o(.text)
    USB_GetCurrentFrame                      0x08007045   Thumb Code    12  stm32f4xx_ll_usb.o(.text)
    USB_HC_Init                              0x08007051   Thumb Code   392  stm32f4xx_ll_usb.o(.text)
    USB_DoPing                               0x080071d9   Thumb Code    60  stm32f4xx_ll_usb.o(.text)
    USB_HC_StartXfer                         0x08007215   Thumb Code   412  stm32f4xx_ll_usb.o(.text)
    USB_HC_ReadInterrupt                     0x080073b1   Thumb Code    12  stm32f4xx_ll_usb.o(.text)
    USB_HC_Halt                              0x080073bd   Thumb Code   328  stm32f4xx_ll_usb.o(.text)
    USB_StopHost                             0x08007505   Thumb Code   174  stm32f4xx_ll_usb.o(.text)
    rt_system_tick_init                      0x080075b5   Thumb Code     2  clock.o(.text)
    rt_tick_get                              0x080075b7   Thumb Code     6  clock.o(.text)
    rt_tick_set                              0x080075bd   Thumb Code    22  clock.o(.text)
    rt_tick_increase                         0x080075d3   Thumb Code    42  clock.o(.text)
    rt_tick_from_millisecond                 0x080075fd   Thumb Code    30  clock.o(.text)
    rt_components_board_init                 0x08007631   Thumb Code    20  components.o(.text)
    rt_components_init                       0x08007645   Thumb Code    20  components.o(.text)
    main_thread_entry                        0x08007659   Thumb Code    14  components.o(.text)
    rt_application_init                      0x08007667   Thumb Code    48  components.o(.text)
    rtthread_startup                         0x08007697   Thumb Code    42  components.o(.text)
    main                                     0x080076c1   Thumb Code    14  components.o(.text)
    rt_device_find                           0x080076f9   Thumb Code    94  device.o(.text)
    rt_device_register                       0x08007757   Thumb Code    64  device.o(.text)
    rt_device_unregister                     0x08007797   Thumb Code    26  device.o(.text)
    rt_device_init_all                       0x080077b1   Thumb Code     4  device.o(.text)
    rt_device_create                         0x080077b5   Thumb Code    40  device.o(.text)
    rt_device_destroy                        0x080077dd   Thumb Code    18  device.o(.text)
    rt_device_init                           0x080077ef   Thumb Code    64  device.o(.text)
    rt_device_open                           0x0800782f   Thumb Code   150  device.o(.text)
    rt_device_close                          0x080078c5   Thumb Code    70  device.o(.text)
    rt_device_read                           0x0800790b   Thumb Code    76  device.o(.text)
    rt_device_write                          0x08007957   Thumb Code    76  device.o(.text)
    rt_device_control                        0x080079a3   Thumb Code    44  device.o(.text)
    rt_device_set_rx_indicate                0x080079cf   Thumb Code    26  device.o(.text)
    rt_device_set_tx_complete                0x080079e9   Thumb Code    26  device.o(.text)
    rt_thread_idle_sethook                   0x08007aa1   Thumb Code     6  idle.o(.text)
    rt_thread_idle_excute                    0x08007aa7   Thumb Code   154  idle.o(.text)
    rt_thread_idle_init                      0x08007b55   Thumb Code    38  idle.o(.text)
    rt_thread_idle_gethandler                0x08007b7b   Thumb Code     4  idle.o(.text)
    rt_sem_init                              0x08007c85   Thumb Code    50  ipc.o(.text)
    rt_sem_detach                            0x08007cb7   Thumb Code    34  ipc.o(.text)
    rt_sem_create                            0x08007cd9   Thumb Code    84  ipc.o(.text)
    rt_sem_delete                            0x08007d2d   Thumb Code    78  ipc.o(.text)
    rt_sem_take                              0x08007d7b   Thumb Code   266  ipc.o(.text)
    rt_sem_trytake                           0x08007e85   Thumb Code    14  ipc.o(.text)
    rt_sem_release                           0x08007e93   Thumb Code    80  ipc.o(.text)
    rt_sem_control                           0x08007ee3   Thumb Code    68  ipc.o(.text)
    rt_mutex_init                            0x08007f27   Thumb Code    58  ipc.o(.text)
    rt_mutex_detach                          0x08007f61   Thumb Code    36  ipc.o(.text)
    rt_mutex_create                          0x08007f85   Thumb Code    96  ipc.o(.text)
    rt_mutex_delete                          0x08007fe5   Thumb Code    78  ipc.o(.text)
    rt_mutex_take                            0x08008033   Thumb Code   534  ipc.o(.text)
    rt_mutex_release                         0x08008249   Thumb Code   272  ipc.o(.text)
    rt_mutex_control                         0x08008359   Thumb Code     8  ipc.o(.text)
    rt_event_init                            0x08008361   Thumb Code    46  ipc.o(.text)
    rt_event_detach                          0x0800838f   Thumb Code    36  ipc.o(.text)
    rt_event_create                          0x080083b3   Thumb Code    88  ipc.o(.text)
    rt_event_delete                          0x0800840b   Thumb Code    82  ipc.o(.text)
    rt_event_send                            0x0800845d   Thumb Code   272  ipc.o(.text)
    rt_event_recv                            0x0800856d   Thumb Code   380  ipc.o(.text)
    rt_event_control                         0x080086e9   Thumb Code    70  ipc.o(.text)
    rt_mb_init                               0x0800872f   Thumb Code    76  ipc.o(.text)
    rt_mb_detach                             0x0800877b   Thumb Code    44  ipc.o(.text)
    rt_mb_create                             0x080087a7   Thumb Code   128  ipc.o(.text)
    rt_mb_delete                             0x08008827   Thumb Code    96  ipc.o(.text)
    rt_mb_send_wait                          0x08008887   Thumb Code   436  ipc.o(.text)
    rt_mb_send                               0x08008a3b   Thumb Code    18  ipc.o(.text)
    rt_mb_recv                               0x08008a4d   Thumb Code   412  ipc.o(.text)
    rt_mb_control                            0x08008be9   Thumb Code    82  ipc.o(.text)
    rt_mq_init                               0x08008c3b   Thumb Code   118  ipc.o(.text)
    rt_mq_detach                             0x08008cb1   Thumb Code    36  ipc.o(.text)
    rt_mq_delete                             0x08008cd5   Thumb Code    88  ipc.o(.text)
    rt_mq_create                             0x08008d2d   Thumb Code   174  ipc.o(.text)
    rt_mq_send                               0x08008ddb   Thumb Code   290  ipc.o(.text)
    rt_mq_urgent                             0x08008efd   Thumb Code   198  ipc.o(.text)
    rt_mq_recv                               0x08008fc3   Thumb Code   438  ipc.o(.text)
    rt_mq_control                            0x08009179   Thumb Code    98  ipc.o(.text)
    rt_interrupt_enter_sethook               0x08009231   Thumb Code     6  irq.o(.text)
    rt_interrupt_leave_sethook               0x08009237   Thumb Code     6  irq.o(.text)
    rt_interrupt_enter                       0x0800923d   Thumb Code    46  irq.o(.text)
    rt_interrupt_leave                       0x0800926b   Thumb Code    46  irq.o(.text)
    rt_interrupt_get_nest                    0x08009299   Thumb Code     6  irq.o(.text)
    rt_get_errno                             0x080092ad   Thumb Code    32  kservice.o(.text)
    rt_set_errno                             0x080092cd   Thumb Code    36  kservice.o(.text)
    _rt_errno                                0x080092f1   Thumb Code    30  kservice.o(.text)
    rt_memset                                0x0800930f   Thumb Code    72  kservice.o(.text)
    rt_memcpy                                0x08009357   Thumb Code   124  kservice.o(.text)
    rt_memmove                               0x080093d3   Thumb Code    66  kservice.o(.text)
    rt_memcmp                                0x08009415   Thumb Code    38  kservice.o(.text)
    rt_strlen                                0x0800943b   Thumb Code    18  kservice.o(.text)
    rt_strstr                                0x0800944d   Thumb Code    58  kservice.o(.text)
    rt_strcasecmp                            0x08009487   Thumb Code    48  kservice.o(.text)
    rt_strncpy                               0x080094b7   Thumb Code    52  kservice.o(.text)
    rt_strncmp                               0x080094eb   Thumb Code    40  kservice.o(.text)
    rt_strcmp                                0x08009513   Thumb Code    28  kservice.o(.text)
    rt_strnlen                               0x0800952f   Thumb Code    24  kservice.o(.text)
    rt_strdup                                0x08009547   Thumb Code    40  kservice.o(.text)
    rt_hw_console_output                     0x0800956f   Thumb Code     2  kservice.o(.text)
    rt_vsnprintf                             0x08009727   Thumb Code   800  kservice.o(.text)
    rt_kprintf                               0x08009a47   Thumb Code    96  kservice.o(.text)
    rt_show_version                          0x08009aa7   Thumb Code    38  kservice.o(.text)
    rt_snprintf                              0x08009acd   Thumb Code    38  kservice.o(.text)
    rt_vsprintf                              0x08009af3   Thumb Code    22  kservice.o(.text)
    rt_sprintf                               0x08009b09   Thumb Code    34  kservice.o(.text)
    rt_console_get_device                    0x08009b2b   Thumb Code     6  kservice.o(.text)
    rt_console_set_device                    0x08009b31   Thumb Code    48  kservice.o(.text)
    rt_kputs                                 0x08009b61   Thumb Code    78  kservice.o(.text)
    rt_malloc_align                          0x08009baf   Thumb Code    66  kservice.o(.text)
    rt_free_align                            0x08009bf1   Thumb Code    16  kservice.o(.text)
    __rt_ffs                                 0x08009c01   Thumb Code    70  kservice.o(.text)
    rt_assert_set_hook                       0x08009c47   Thumb Code     6  kservice.o(.text)
    rt_assert_handler                        0x08009c4d   Thumb Code    56  kservice.o(.text)
    rt_malloc_sethook                        0x08009d5d   Thumb Code     6  mem.o(.text)
    rt_free_sethook                          0x08009d63   Thumb Code     6  mem.o(.text)
    rt_system_heap_init                      0x08009e09   Thumb Code   204  mem.o(.text)
    rt_malloc                                0x08009ed5   Thumb Code   522  mem.o(.text)
    rt_free                                  0x0800a0df   Thumb Code   684  mem.o(.text)
    rt_realloc                               0x0800a38b   Thumb Code   324  mem.o(.text)
    rt_calloc                                0x0800a4cf   Thumb Code    84  mem.o(.text)
    rt_memory_info                           0x0800a523   Thumb Code    26  mem.o(.text)
    list_mem                                 0x0800a53d   Thumb Code    34  mem.o(.text)
    rt_memheap_init                          0x0800a64d   Thumb Code   174  memheap.o(.text)
    rt_memheap_detach                        0x0800a6fb   Thumb Code    34  memheap.o(.text)
    rt_memheap_alloc                         0x0800a71d   Thumb Code   308  memheap.o(.text)
    rt_memheap_free                          0x0800a851   Thumb Code   268  memheap.o(.text)
    rt_memheap_realloc                       0x0800a95d   Thumb Code   794  memheap.o(.text)
    rt_object_attach_sethook                 0x0800ac9d   Thumb Code     6  object.o(.text)
    rt_object_detach_sethook                 0x0800aca3   Thumb Code     6  object.o(.text)
    rt_object_trytake_sethook                0x0800aca9   Thumb Code     6  object.o(.text)
    rt_object_take_sethook                   0x0800acaf   Thumb Code     6  object.o(.text)
    rt_object_put_sethook                    0x0800acb5   Thumb Code     6  object.o(.text)
    rt_system_object_init                    0x0800acbb   Thumb Code     2  object.o(.text)
    rt_object_get_information                0x0800acbd   Thumb Code    36  object.o(.text)
    rt_object_init                           0x0800ace1   Thumb Code    92  object.o(.text)
    rt_object_detach                         0x0800ad3d   Thumb Code    58  object.o(.text)
    rt_object_allocate                       0x0800ad77   Thumb Code   148  object.o(.text)
    rt_object_delete                         0x0800ae0b   Thumb Code    84  object.o(.text)
    rt_object_is_systemobject                0x0800ae5f   Thumb Code    34  object.o(.text)
    rt_object_find                           0x0800ae81   Thumb Code   142  object.o(.text)
    rt_scheduler_sethook                     0x0800afc1   Thumb Code     6  scheduler.o(.text)
    rt_system_scheduler_init                 0x0800b021   Thumb Code    56  scheduler.o(.text)
    rt_system_scheduler_start                0x0800b059   Thumb Code    36  scheduler.o(.text)
    rt_schedule                              0x0800b07d   Thumb Code   154  scheduler.o(.text)
    rt_schedule_insert_thread                0x0800b117   Thumb Code    82  scheduler.o(.text)
    rt_schedule_remove_thread                0x0800b169   Thumb Code    94  scheduler.o(.text)
    rt_enter_critical                        0x0800b1c7   Thumb Code    28  scheduler.o(.text)
    rt_exit_critical                         0x0800b1e3   Thumb Code    54  scheduler.o(.text)
    rt_critical_level                        0x0800b219   Thumb Code     8  scheduler.o(.text)
    rt_thread_suspend_sethook                0x0800b2dd   Thumb Code     6  thread.o(.text)
    rt_thread_resume_sethook                 0x0800b2e3   Thumb Code     6  thread.o(.text)
    rt_thread_inited_sethook                 0x0800b2e9   Thumb Code     6  thread.o(.text)
    rt_thread_exit                           0x0800b2ef   Thumb Code    76  thread.o(.text)
    rt_thread_timeout                        0x0800b33b   Thumb Code    70  thread.o(.text)
    rt_thread_init                           0x0800b421   Thumb Code    74  thread.o(.text)
    rt_thread_self                           0x0800b46b   Thumb Code     6  thread.o(.text)
    rt_thread_resume                         0x0800b471   Thumb Code   100  thread.o(.text)
    rt_thread_startup                        0x0800b4d5   Thumb Code    88  thread.o(.text)
    rt_thread_detach                         0x0800b52d   Thumb Code    84  thread.o(.text)
    rt_thread_create                         0x0800b581   Thumb Code    80  thread.o(.text)
    rt_thread_delete                         0x0800b5d1   Thumb Code    74  thread.o(.text)
    rt_thread_yield                          0x0800b61b   Thumb Code    92  thread.o(.text)
    rt_thread_suspend                        0x0800b677   Thumb Code   350  thread.o(.text)
    rt_thread_sleep                          0x0800b7d5   Thumb Code    78  thread.o(.text)
    rt_thread_delay                          0x0800b823   Thumb Code    12  thread.o(.text)
    rt_thread_control                        0x0800b82f   Thumb Code   134  thread.o(.text)
    rt_thread_find                           0x0800b8b5   Thumb Code    96  thread.o(.text)
    rt_timer_timeout_sethook                 0x0800b94b   Thumb Code     6  timer.o(.text)
    rt_timer_init                            0x0800b9dd   Thumb Code    58  timer.o(.text)
    rt_timer_detach                          0x0800ba17   Thumb Code    44  timer.o(.text)
    rt_timer_create                          0x0800ba43   Thumb Code    54  timer.o(.text)
    rt_timer_delete                          0x0800ba79   Thumb Code    46  timer.o(.text)
    rt_timer_start                           0x0800baa7   Thumb Code   292  timer.o(.text)
    rt_timer_stop                            0x0800bbcb   Thumb Code    80  timer.o(.text)
    rt_timer_control                         0x0800bc1b   Thumb Code    76  timer.o(.text)
    rt_timer_check                           0x0800bc67   Thumb Code   148  timer.o(.text)
    rt_timer_next_timeout_tick               0x0800bcfb   Thumb Code    10  timer.o(.text)
    rt_system_timer_init                     0x0800bd05   Thumb Code    24  timer.o(.text)
    rt_system_timer_thread_init              0x0800bd1d   Thumb Code     2  timer.o(.text)
    rt_hw_stack_init                         0x0800bd99   Thumb Code    74  cpuport.o(.text)
    rt_hw_exception_install                  0x0800bde3   Thumb Code     6  cpuport.o(.text)
    rt_hw_hard_fault_exception               0x0800bde9   Thumb Code   112  cpuport.o(.text)
    rt_hw_cpu_shutdown                       0x0800be59   Thumb Code    20  cpuport.o(.text)
    rt_hw_interrupt_disable                  0x0800bf29   Thumb Code     8  context_rvds.o(.text)
    rt_hw_interrupt_enable                   0x0800bf31   Thumb Code     6  context_rvds.o(.text)
    rt_hw_context_switch                     0x0800bf37   Thumb Code    32  context_rvds.o(.text)
    rt_hw_context_switch_interrupt           0x0800bf37   Thumb Code     0  context_rvds.o(.text)
    PendSV_Handler                           0x0800bf57   Thumb Code   108  context_rvds.o(.text)
    rt_hw_context_switch_to                  0x0800bfc3   Thumb Code    70  context_rvds.o(.text)
    rt_hw_interrupt_thread_switch            0x0800c009   Thumb Code     2  context_rvds.o(.text)
    HardFault_Handler                        0x0800c00b   Thumb Code    20  context_rvds.o(.text)
    dfs_init                                 0x0800c039   Thumb Code    74  dfs.o(.text)
    dfs_lock                                 0x0800c083   Thumb Code    28  dfs.o(.text)
    dfs_unlock                               0x0800c09f   Thumb Code    10  dfs.o(.text)
    fd_new                                   0x0800c0a9   Thumb Code    62  dfs.o(.text)
    fd_get                                   0x0800c0e7   Thumb Code    60  dfs.o(.text)
    fd_put                                   0x0800c123   Thumb Code    44  dfs.o(.text)
    dfs_normalize_path                       0x0800c14f   Thumb Code   340  dfs.o(.text)
    fd_is_open                               0x0800c2a3   Thumb Code   152  dfs.o(.text)
    dfs_subdir                               0x0800c33b   Thumb Code    56  dfs.o(.text)
    list_fd                                  0x0800c373   Thumb Code   118  dfs.o(.text)
    dfs_file_open                            0x0800c4a9   Thumb Code   234  dfs_file.o(.text)
    dfs_file_close                           0x0800c593   Thumb Code    50  dfs_file.o(.text)
    dfs_file_ioctl                           0x0800c5c5   Thumb Code    84  dfs_file.o(.text)
    dfs_file_read                            0x0800c619   Thumb Code    62  dfs_file.o(.text)
    dfs_file_getdents                        0x0800c657   Thumb Code    48  dfs_file.o(.text)
    dfs_file_unlink                          0x0800c687   Thumb Code   148  dfs_file.o(.text)
    dfs_file_write                           0x0800c71b   Thumb Code    42  dfs_file.o(.text)
    dfs_file_flush                           0x0800c745   Thumb Code    34  dfs_file.o(.text)
    dfs_file_lseek                           0x0800c767   Thumb Code    48  dfs_file.o(.text)
    dfs_file_stat                            0x0800c797   Thumb Code   182  dfs_file.o(.text)
    dfs_file_rename                          0x0800c84d   Thumb Code   170  dfs_file.o(.text)
    ls                                       0x0800c8f7   Thumb Code   216  dfs_file.o(.text)
    rm                                       0x0800c9cf   Thumb Code    24  dfs_file.o(.text)
    cat                                      0x0800c9e7   Thumb Code    78  dfs_file.o(.text)
    copy                                     0x0800cbf5   Thumb Code   636  dfs_file.o(.text)
    dfs_register                             0x0800ce71   Thumb Code    98  dfs_fs.o(.text)
    dfs_filesystem_lookup                    0x0800ced3   Thumb Code   114  dfs_fs.o(.text)
    dfs_filesystem_get_mounted_path          0x0800cf45   Thumb Code    52  dfs_fs.o(.text)
    dfs_filesystem_get_partition             0x0800cf79   Thumb Code   206  dfs_fs.o(.text)
    dfs_mount                                0x0800d047   Thumb Code   402  dfs_fs.o(.text)
    dfs_unmount                              0x0800d1d9   Thumb Code   284  dfs_fs.o(.text)
    dfs_mkfs                                 0x0800d2f5   Thumb Code   138  dfs_fs.o(.text)
    dfs_statfs                               0x0800d37f   Thumb Code    40  dfs_fs.o(.text)
    mkfs                                     0x0800d3a7   Thumb Code    16  dfs_fs.o(.text)
    df                                       0x0800d3b7   Thumb Code   192  dfs_fs.o(.text)
    open                                     0x0800d501   Thumb Code    94  dfs_posix.o(.text)
    close                                    0x0800d55f   Thumb Code    68  dfs_posix.o(.text)
    read                                     0x0800d5a3   Thumb Code    80  dfs_posix.o(.text)
    write                                    0x0800d5f3   Thumb Code    80  dfs_posix.o(.text)
    lseek                                    0x0800d643   Thumb Code   150  dfs_posix.o(.text)
    rename                                   0x0800d6d9   Thumb Code    36  dfs_posix.o(.text)
    unlink                                   0x0800d6fd   Thumb Code    32  dfs_posix.o(.text)
    stat                                     0x0800d71d   Thumb Code    36  dfs_posix.o(.text)
    fstat                                    0x0800d741   Thumb Code    82  dfs_posix.o(.text)
    fsync                                    0x0800d793   Thumb Code    46  dfs_posix.o(.text)
    fcntl                                    0x0800d7c1   Thumb Code    66  dfs_posix.o(.text)
    ioctl                                    0x0800d803   Thumb Code    20  dfs_posix.o(.text)
    statfs                                   0x0800d817   Thumb Code    36  dfs_posix.o(.text)
    mkdir                                    0x0800d83b   Thumb Code   104  dfs_posix.o(.text)
    rmdir                                    0x0800d8a3   Thumb Code    32  dfs_posix.o(.text)
    opendir                                  0x0800d8c3   Thumb Code   128  dfs_posix.o(.text)
    readdir                                  0x0800d943   Thumb Code   132  dfs_posix.o(.text)
    telldir                                  0x0800d9c7   Thumb Code    50  dfs_posix.o(.text)
    seekdir                                  0x0800d9f9   Thumb Code    58  dfs_posix.o(.text)
    rewinddir                                0x0800da33   Thumb Code    56  dfs_posix.o(.text)
    closedir                                 0x0800da6b   Thumb Code    74  dfs_posix.o(.text)
    chdir                                    0x0800dab5   Thumb Code   140  dfs_posix.o(.text)
    access                                   0x0800db41   Thumb Code    32  dfs_posix.o(.text)
    getcwd                                   0x0800db61   Thumb Code    28  dfs_posix.o(.text)
    dfs_device_fs_mount                      0x0800db89   Thumb Code     6  devfs.o(.text)
    dfs_device_fs_ioctl                      0x0800db8f   Thumb Code    60  devfs.o(.text)
    dfs_device_fs_read                       0x0800dbcb   Thumb Code    62  devfs.o(.text)
    dfs_device_fs_write                      0x0800dc09   Thumb Code    62  devfs.o(.text)
    dfs_device_fs_close                      0x0800dc47   Thumb Code    86  devfs.o(.text)
    dfs_device_fs_open                       0x0800dc9d   Thumb Code   258  devfs.o(.text)
    dfs_device_fs_stat                       0x0800dd9f   Thumb Code   148  devfs.o(.text)
    dfs_device_fs_getdents                   0x0800de33   Thumb Code   122  devfs.o(.text)
    devfs_init                               0x0800deb3   Thumb Code    12  devfs.o(.text)
    dfs_ramfs_mount                          0x0800df31   Thumb Code    22  dfs_ramfs.o(.text)
    dfs_ramfs_unmount                        0x0800df47   Thumb Code     8  dfs_ramfs.o(.text)
    dfs_ramfs_statfs                         0x0800df4f   Thumb Code    54  dfs_ramfs.o(.text)
    dfs_ramfs_ioctl                          0x0800df85   Thumb Code     8  dfs_ramfs.o(.text)
    dfs_ramfs_lookup                         0x0800df8d   Thumb Code    86  dfs_ramfs.o(.text)
    dfs_ramfs_read                           0x0800dfe3   Thumb Code    80  dfs_ramfs.o(.text)
    dfs_ramfs_write                          0x0800e033   Thumb Code   124  dfs_ramfs.o(.text)
    dfs_ramfs_lseek                          0x0800e0af   Thumb Code    20  dfs_ramfs.o(.text)
    dfs_ramfs_close                          0x0800e0c3   Thumb Code     8  dfs_ramfs.o(.text)
    dfs_ramfs_open                           0x0800e0cb   Thumb Code   278  dfs_ramfs.o(.text)
    dfs_ramfs_stat                           0x0800e1e1   Thumb Code    58  dfs_ramfs.o(.text)
    dfs_ramfs_getdents                       0x0800e21b   Thumb Code   160  dfs_ramfs.o(.text)
    dfs_ramfs_unlink                         0x0800e2bb   Thumb Code    82  dfs_ramfs.o(.text)
    dfs_ramfs_rename                         0x0800e30d   Thumb Code   180  dfs_ramfs.o(.text)
    dfs_ramfs_init                           0x0800e3c1   Thumb Code    12  dfs_ramfs.o(.text)
    dfs_ramfs_create                         0x0800e3cd   Thumb Code   104  dfs_ramfs.o(.text)
    rt_device_pin_register                   0x0800e4fd   Thumb Code    56  pin.o(.text)
    rt_pin_attach_irq                        0x0800e535   Thumb Code    60  pin.o(.text)
    rt_pin_dettach_irq                       0x0800e571   Thumb Code    46  pin.o(.text)
    rt_pin_irq_enable                        0x0800e59f   Thumb Code    50  pin.o(.text)
    rt_pin_mode                              0x0800e5d1   Thumb Code    38  pin.o(.text)
    rt_pin_write                             0x0800e5f7   Thumb Code    38  pin.o(.text)
    rt_pin_read                              0x0800e61d   Thumb Code    34  pin.o(.text)
    rt_hw_serial_register                    0x0800f189   Thumb Code    86  serial.o(.text)
    rt_hw_serial_isr                         0x0800f1df   Thumb Code   388  serial.o(.text)
    rt_completion_init                       0x0800f539   Thumb Code    42  completion.o(.text)
    rt_completion_wait                       0x0800f563   Thumb Code   198  completion.o(.text)
    rt_completion_done                       0x0800f629   Thumb Code    76  completion.o(.text)
    rt_data_queue_init                       0x0800f70f   Thumb Code    76  dataqueue.o(.text)
    rt_data_queue_push                       0x0800f75b   Thumb Code   282  dataqueue.o(.text)
    rt_data_queue_pop                        0x0800f875   Thumb Code   342  dataqueue.o(.text)
    rt_data_queue_peak                       0x0800f9cb   Thumb Code   104  dataqueue.o(.text)
    rt_data_queue_reset                      0x0800fa33   Thumb Code   106  dataqueue.o(.text)
    rt_wqueue_add                            0x0800fb25   Thumb Code    36  waitqueue.o(.text)
    rt_wqueue_remove                         0x0800fb49   Thumb Code    38  waitqueue.o(.text)
    __wqueue_default_wake                    0x0800fb6f   Thumb Code     6  waitqueue.o(.text)
    rt_wqueue_wakeup                         0x0800fb75   Thumb Code   100  waitqueue.o(.text)
    rt_wqueue_wait                           0x0800fbd9   Thumb Code   156  waitqueue.o(.text)
    rt_usbd_ep0_write                        0x0800fecf   Thumb Code   126  core.o(.text)
    rt_usbd_ep0_set_stall                    0x0800ffd7   Thumb Code    28  core.o(.text)
    rt_usbd_find_interface                   0x0801032b   Thumb Code   128  core.o(.text)
    rt_usbd_find_altsetting                  0x08010407   Thumb Code    86  core.o(.text)
    rt_usbd_set_altsetting                   0x0801045d   Thumb Code    40  core.o(.text)
    rt_usbd_find_config                      0x08010567   Thumb Code    88  core.o(.text)
    rt_usbd_set_config                       0x080105bf   Thumb Code    68  core.o(.text)
    rt_usbd_set_feature                      0x080108b1   Thumb Code    50  core.o(.text)
    rt_usbd_find_endpoint                    0x080108e3   Thumb Code   126  core.o(.text)
    rt_usbd_io_request                       0x08010a5d   Thumb Code   132  core.o(.text)
    rt_usbd_clear_feature                    0x08010ae1   Thumb Code    50  core.o(.text)
    rt_usbd_ep0_read                         0x08011121   Thumb Code   392  core.o(.text)
    rt_usbd_device_new                       0x080113b7   Thumb Code    56  core.o(.text)
    rt_usbd_device_set_string                0x080113ef   Thumb Code    40  core.o(.text)
    rt_usbd_device_set_os_comp_id_desc       0x08011417   Thumb Code    50  core.o(.text)
    rt_usbd_device_set_qualifier             0x08011449   Thumb Code    40  core.o(.text)
    rt_usbd_device_set_controller            0x08011471   Thumb Code    40  core.o(.text)
    rt_usbd_device_set_descriptor            0x08011499   Thumb Code    50  core.o(.text)
    rt_usbd_config_new                       0x080114cb   Thumb Code    72  core.o(.text)
    rt_usbd_interface_new                    0x08011513   Thumb Code    76  core.o(.text)
    rt_usbd_altsetting_new                   0x0801155f   Thumb Code    88  core.o(.text)
    rt_usbd_altsetting_config_descriptor     0x080115b7   Thumb Code    58  core.o(.text)
    rt_usbd_function_new                     0x080115f1   Thumb Code    86  core.o(.text)
    rt_usbd_endpoint_new                     0x08011647   Thumb Code    68  core.o(.text)
    rt_usbd_find_device                      0x0801168b   Thumb Code   328  core.o(.text)
    rt_usbd_device_add_config                0x080118a1   Thumb Code   186  core.o(.text)
    rt_usbd_config_add_function              0x0801195b   Thumb Code    52  core.o(.text)
    rt_usbd_function_add_interface           0x0801198f   Thumb Code    52  core.o(.text)
    rt_usbd_interface_add_altsetting         0x080119c3   Thumb Code    60  core.o(.text)
    rt_usbd_altsetting_add_endpoint          0x080119ff   Thumb Code    56  core.o(.text)
    rt_usbd_os_comp_id_desc_add_os_func_comp_id_desc 0x08011a37   Thumb Code    56  core.o(.text)
    rt_usbd_ep0_clear_stall                  0x08011a6f   Thumb Code    28  core.o(.text)
    rt_usbd_ep_set_stall                     0x08011a8b   Thumb Code    76  core.o(.text)
    rt_usbd_ep_clear_stall                   0x08011ad7   Thumb Code    76  core.o(.text)
    rt_usbd_event_signal                     0x08011b87   Thumb Code   250  core.o(.text)
    rt_usbd_ep0_setup_handler                0x08011c81   Thumb Code    80  core.o(.text)
    rt_usbd_ep0_in_handler                   0x08011cd1   Thumb Code   120  core.o(.text)
    rt_usbd_ep0_out_handler                  0x08011d49   Thumb Code    42  core.o(.text)
    rt_usbd_ep_in_handler                    0x08011d73   Thumb Code    48  core.o(.text)
    rt_usbd_ep_out_handler                   0x08011da3   Thumb Code    48  core.o(.text)
    rt_usbd_reset_handler                    0x08011dd3   Thumb Code    38  core.o(.text)
    rt_usbd_connect_handler                  0x08011df9   Thumb Code    38  core.o(.text)
    rt_usbd_disconnect_handler               0x08011e1f   Thumb Code    38  core.o(.text)
    rt_usbd_sof_handler                      0x08011e45   Thumb Code    38  core.o(.text)
    rt_usbd_core_init                        0x08011f1b   Thumb Code    68  core.o(.text)
    rt_usb_device_init                       0x080120e5   Thumb Code   112  usbdevice.o(.text)
    rt_usbd_function_winusb_create           0x08012489   Thumb Code   206  winusb.o(.text)
    finsh_get_prompt                         0x08012671   Thumb Code    66  shell.o(.text)
    finsh_set_echo                           0x080126bf   Thumb Code    30  shell.o(.text)
    finsh_get_echo                           0x080126dd   Thumb Code    32  shell.o(.text)
    finsh_thread_entry                       0x0801281f   Thumb Code  1294  shell.o(.text)
    finsh_system_function_init               0x08012d2d   Thumb Code    10  shell.o(.text)
    finsh_system_var_init                    0x08012d37   Thumb Code    10  shell.o(.text)
    finsh_system_init                        0x08012d41   Thumb Code   114  shell.o(.text)
    hello                                    0x08012e25   Thumb Code    12  cmd.o(.text)
    version                                  0x08012e31   Thumb Code    10  cmd.o(.text)
    list_thread                              0x08012f35   Thumb Code    18  cmd.o(.text)
    list_sem                                 0x08012fff   Thumb Code    18  cmd.o(.text)
    list_event                               0x0801308f   Thumb Code    18  cmd.o(.text)
    list_mutex                               0x080130fd   Thumb Code    18  cmd.o(.text)
    list_mailbox                             0x080131b3   Thumb Code    18  cmd.o(.text)
    list_msgqueue                            0x0801352b   Thumb Code    18  cmd.o(.text)
    list_memheap                             0x08013589   Thumb Code    18  cmd.o(.text)
    list_mempool                             0x08013621   Thumb Code    18  cmd.o(.text)
    list_timer                               0x080136a3   Thumb Code    18  cmd.o(.text)
    list_device                              0x08013731   Thumb Code    18  cmd.o(.text)
    list                                     0x08013743   Thumb Code    54  cmd.o(.text)
    msh_is_used                              0x08013a15   Thumb Code     4  msh.o(.text)
    msh_help                                 0x08013a19   Thumb Code    66  msh.o(.text)
    msh_exec                                 0x08013bf9   Thumb Code   108  msh.o(.text)
    msh_auto_complete_path                   0x08013c85   Thumb Code   538  msh.o(.text)
    msh_auto_complete                        0x08013e9f   Thumb Code   182  msh.o(.text)
    cmd_ls                                   0x08013f5d   Thumb Code    28  msh_cmd.o(.text)
    cmd_cp                                   0x08013f79   Thumb Code    36  msh_cmd.o(.text)
    cmd_mv                                   0x08013f9d   Thumb Code   194  msh_cmd.o(.text)
    cmd_cat                                  0x0801405f   Thumb Code    48  msh_cmd.o(.text)
    cmd_rm                                   0x0801408f   Thumb Code    48  msh_cmd.o(.text)
    cmd_cd                                   0x080140bf   Thumb Code    44  msh_cmd.o(.text)
    cmd_pwd                                  0x080140eb   Thumb Code    18  msh_cmd.o(.text)
    cmd_mkdir                                0x080140fd   Thumb Code    36  msh_cmd.o(.text)
    cmd_mkfs                                 0x08014121   Thumb Code    82  msh_cmd.o(.text)
    cmd_df                                   0x08014173   Thumb Code    56  msh_cmd.o(.text)
    cmd_echo                                 0x080141ab   Thumb Code    92  msh_cmd.o(.text)
    cmd_ps                                   0x08014207   Thumb Code    14  msh_cmd.o(.text)
    cmd_time                                 0x08014215   Thumb Code     6  msh_cmd.o(.text)
    cmd_free                                 0x0801421b   Thumb Code    14  msh_cmd.o(.text)
    msh_exec_script                          0x080144bf   Thumb Code   272  msh_file.o(.text)
    libc_system_init                         0x080145e5   Thumb Code    22  libc.o(.text)
    malloc                                   0x080145fb   Thumb Code    12  mem_std.o(.text)
    realloc                                  0x08014607   Thumb Code    16  mem_std.o(.text)
    calloc                                   0x08014617   Thumb Code    16  mem_std.o(.text)
    free                                     0x08014627   Thumb Code    12  mem_std.o(.text)
    libc_stdio_set_console                   0x08014635   Thumb Code    70  stdio.o(.text)
    libc_stdio_get_console                   0x0801467b   Thumb Code     6  stdio.o(.text)
    libc_stdio_read                          0x08014681   Thumb Code    20  stdio.o(.text)
    libc_stdio_write                         0x08014695   Thumb Code    20  stdio.o(.text)
    _sys_open                                0x080146b5   Thumb Code   146  stubs.o(.text)
    _sys_close                               0x08014747   Thumb Code    20  stubs.o(.text)
    _sys_read                                0x0801475b   Thumb Code    70  stubs.o(.text)
    _sys_write                               0x080147a1   Thumb Code    70  stubs.o(.text)
    _sys_seek                                0x080147e7   Thumb Code    28  stubs.o(.text)
    _sys_tmpnam                              0x08014803   Thumb Code     8  stubs.o(.text)
    _sys_command_string                      0x0801480b   Thumb Code     2  stubs.o(.text)
    _ttywrch                                 0x0801480d   Thumb Code    16  stubs.o(.text)
    _sys_exit                                0x0801481d   Thumb Code     4  stubs.o(.text)
    _sys_flen                                0x08014821   Thumb Code     8  stubs.o(.text)
    _sys_istty                               0x08014829   Thumb Code     6  stubs.o(.text)
    remove                                   0x0801482f   Thumb Code    12  stubs.o(.text)
    system                                   0x0801483b   Thumb Code    16  stubs.o(.text)
    time                                     0x0801484b   Thumb Code     6  stubs.o(.text)
    __semihosting$guard                      0x08014865   Thumb Code     0  use_no_semi.o(.text)
    __use_no_semihosting_swi                 0x08014865   Thumb Code     2  use_no_semi.o(.text)
    __use_no_heap                            0x08014867   Thumb Code     2  hguard.o(.text)
    __I$use$heap                             0x08014869   Thumb Code     2  hguard.o(.text)
    __aeabi_uldivmod                         0x0801486b   Thumb Code     0  lludivv7m.o(.text)
    _ll_udiv                                 0x0801486b   Thumb Code   238  lludivv7m.o(.text)
    __aeabi_ldivmod                          0x08014959   Thumb Code     0  llsdiv.o(.text)
    _ll_sdiv                                 0x08014959   Thumb Code    72  llsdiv.o(.text)
    __2snprintf                              0x080149a1   Thumb Code    48  noretval__2snprintf.o(.text)
    __printf                                 0x080149d5   Thumb Code   104  __printf.o(.text)
    _printf_str                              0x08014a3d   Thumb Code    82  _printf_str.o(.text)
    getc                                     0x08014a8f   Thumb Code     4  getc.o(.text)
    freopen                                  0x08014a95   Thumb Code   158  fopen.o(.text)
    fopen                                    0x08014b33   Thumb Code    74  fopen.o(.text)
    _fclose_internal                         0x08014b81   Thumb Code    76  fclose.o(.text)
    fclose                                   0x08014b81   Thumb Code     0  fclose.o(.text)
    strstr                                   0x08014bcd   Thumb Code    36  strstr.o(.text)
    memcmp                                   0x08014bf1   Thumb Code    88  memcmp.o(.text)
    strcpy                                   0x08014c49   Thumb Code    72  strcpy.o(.text)
    strrchr                                  0x08014c91   Thumb Code    22  strrchr.o(.text)
    strlen                                   0x08014ca7   Thumb Code    62  strlen.o(.text)
    strncmp                                  0x08014ce5   Thumb Code   150  strncmp.o(.text)
    strcat                                   0x08014d7b   Thumb Code    24  strcat.o(.text)
    __aeabi_memcpy                           0x08014d93   Thumb Code     0  rt_memcpy_v6.o(.text)
    __rt_memcpy                              0x08014d93   Thumb Code   138  rt_memcpy_v6.o(.text)
    _memcpy_lastbytes                        0x08014df9   Thumb Code     0  rt_memcpy_v6.o(.text)
    __aeabi_memcpy4                          0x08014e1d   Thumb Code     0  rt_memcpy_w.o(.text)
    __aeabi_memcpy8                          0x08014e1d   Thumb Code     0  rt_memcpy_w.o(.text)
    __rt_memcpy_w                            0x08014e1d   Thumb Code   100  rt_memcpy_w.o(.text)
    _memcpy_lastbytes_aligned                0x08014e65   Thumb Code     0  rt_memcpy_w.o(.text)
    __aeabi_memclr                           0x08014e81   Thumb Code     0  rt_memclr.o(.text)
    __rt_memclr                              0x08014e81   Thumb Code    68  rt_memclr.o(.text)
    _memset                                  0x08014e85   Thumb Code     0  rt_memclr.o(.text)
    __aeabi_memclr4                          0x08014ec5   Thumb Code     0  rt_memclr_w.o(.text)
    __aeabi_memclr8                          0x08014ec5   Thumb Code     0  rt_memclr_w.o(.text)
    __rt_memclr_w                            0x08014ec5   Thumb Code    78  rt_memclr_w.o(.text)
    _memset_w                                0x08014ec9   Thumb Code     0  rt_memclr_w.o(.text)
    strncpy                                  0x08014f13   Thumb Code    86  strncpy.o(.text)
    strcmp                                   0x08014f69   Thumb Code   128  strcmpv7m.o(.text)
    __use_two_region_memory                  0x08014fe9   Thumb Code     2  heapauxi.o(.text)
    __rt_heap_escrow$2region                 0x08014feb   Thumb Code     2  heapauxi.o(.text)
    __rt_heap_expand$2region                 0x08014fed   Thumb Code     2  heapauxi.o(.text)
    _printf_char_common                      0x08014ffb   Thumb Code    32  _printf_char_common.o(.text)
    _sputc                                   0x08015021   Thumb Code    10  _sputc.o(.text)
    _snputc                                  0x0801502b   Thumb Code    16  _snputc.o(.text)
    _printf_cs_common                        0x0801503b   Thumb Code    20  _printf_char.o(.text)
    _printf_char                             0x0801504f   Thumb Code    16  _printf_char.o(.text)
    _printf_string                           0x0801505f   Thumb Code     8  _printf_char.o(.text)
    _fseek                                   0x08015069   Thumb Code   242  fseek.o(.text)
    fseek                                    0x08015069   Thumb Code     0  fseek.o(.text)
    _seterr                                  0x08015161   Thumb Code    20  stdio.o(.text)
    _writebuf                                0x08015175   Thumb Code    84  stdio.o(.text)
    _fflush                                  0x080151c9   Thumb Code    70  stdio.o(.text)
    _deferredlazyseek                        0x0801520f   Thumb Code    60  stdio.o(.text)
    _initio                                  0x08015251   Thumb Code   210  initio.o(.text)
    _terminateio                             0x08015323   Thumb Code    56  initio.o(.text)
    _readbuf                                 0x08015389   Thumb Code    54  filbuf.o(.text)
    _seteof                                  0x080153bf   Thumb Code    40  filbuf.o(.text)
    __filbuf                                 0x080153e7   Thumb Code   476  filbuf.o(.text)
    __filbuf_byte                            0x080153e7   Thumb Code     0  filbuf.o(.text)
    __filbuf_wide                            0x080153e7   Thumb Code     0  filbuf.o(.text)
    __flsbuf                                 0x080155c3   Thumb Code   470  flsbuf.o(.text)
    __flsbuf_byte                            0x080155c3   Thumb Code     0  flsbuf.o(.text)
    __flsbuf_wide                            0x080155c3   Thumb Code     0  flsbuf.o(.text)
    _ftell_internal                          0x08015799   Thumb Code    66  ftell.o(.text)
    ftell                                    0x08015799   Thumb Code     0  ftell.o(.text)
    setvbuf                                  0x080157db   Thumb Code    70  setvbuf.o(.text)
    __rt_SIGRTRED                            0x08015821   Thumb Code    14  defsig_rtred_outer.o(.text)
    __user_setup_stackheap                   0x0801582f   Thumb Code    74  sys_stackheap_outer.o(.text)
    __aeabi_errno_addr                       0x08015879   Thumb Code     8  rt_errno_addr_intlibspace.o(.text)
    __errno$intlibspace                      0x08015879   Thumb Code     0  rt_errno_addr_intlibspace.o(.text)
    __rt_errno_addr$intlibspace              0x08015879   Thumb Code     0  rt_errno_addr_intlibspace.o(.text)
    fread                                    0x08015881   Thumb Code   280  freadfast.o(.text)
    fwrite                                   0x08015999   Thumb Code   188  fwritefast.o(.text)
    _flushlinebuffered                       0x08015a55   Thumb Code    50  flushlinebuffered.o(.text)
    exit                                     0x08015a8d   Thumb Code    18  exit.o(.text)
    __sig_exit                               0x08015a9f   Thumb Code    10  defsig_exit.o(.text)
    __rt_SIGRTRED_inner                      0x08015aa9   Thumb Code    14  defsig_rtred_inner.o(.text)
    __user_libspace                          0x08015add   Thumb Code     8  libspace.o(.text)
    __user_perproc_libspace                  0x08015add   Thumb Code     0  libspace.o(.text)
    __user_perthread_libspace                0x08015add   Thumb Code     0  libspace.o(.text)
    _do_fflush                               0x08015ae5   Thumb Code    54  fflush.o(.text)
    fflush                                   0x08015b1b   Thumb Code    42  fflush.o(.text)
    __default_signal_display                 0x08015b49   Thumb Code    50  defsig_general.o(.text)
    fgetc                                    0x08015b7b   Thumb Code    24  fgetc.o(i.fgetc)
    _fp_init                                 0x08015b93   Thumb Code    10  fpinit.o(x$fpl$fpinit)
    __fplib_config_fpu_vfp                   0x08015b9b   Thumb Code     0  fpinit.o(x$fpl$fpinit)
    __fplib_config_pureend_doubles           0x08015b9b   Thumb Code     0  fpinit.o(x$fpl$fpinit)
    AHBPrescTable                            0x080165c4   Data          16  system_stm32f4xx.o(.constdata)
    APBPrescTable                            0x080165d4   Data           8  system_stm32f4xx.o(.constdata)
    __lowest_bit_bitmap                      0x0801689c   Data         256  kservice.o(.constdata)
    __stdin_name                             0x080177de   Data           6  stubs.o(.constdata)
    __stdout_name                            0x080177e4   Data           7  stubs.o(.constdata)
    __stderr_name                            0x080177eb   Data           7  stubs.o(.constdata)
    __fsym_list_mem_name                     0x08017af1   Data           9  mem.o(.rodata.name)
    __fsym_list_mem_desc                     0x08017afa   Data          30  mem.o(.rodata.name)
    __fsym___cmd_list_fd_name                0x08017b18   Data          14  dfs.o(.rodata.name)
    __fsym___cmd_list_fd_desc                0x08017b26   Data          21  dfs.o(.rodata.name)
    __fsym_ls_name                           0x08017b3b   Data           3  dfs_file.o(.rodata.name)
    __fsym_ls_desc                           0x08017b3e   Data          24  dfs_file.o(.rodata.name)
    __fsym_rm_name                           0x08017b56   Data           3  dfs_file.o(.rodata.name)
    __fsym_rm_desc                           0x08017b59   Data          28  dfs_file.o(.rodata.name)
    __fsym_cat_name                          0x08017b75   Data           4  dfs_file.o(.rodata.name)
    __fsym_cat_desc                          0x08017b79   Data          11  dfs_file.o(.rodata.name)
    __fsym_copy_name                         0x08017b84   Data           5  dfs_file.o(.rodata.name)
    __fsym_copy_desc                         0x08017b89   Data          17  dfs_file.o(.rodata.name)
    __fsym_mkfs_name                         0x08017b9a   Data           5  dfs_fs.o(.rodata.name)
    __fsym_mkfs_desc                         0x08017b9f   Data          19  dfs_fs.o(.rodata.name)
    __fsym_df_name                           0x08017bb2   Data           3  dfs_fs.o(.rodata.name)
    __fsym_df_desc                           0x08017bb5   Data          14  dfs_fs.o(.rodata.name)
    __fsym_mkdir_name                        0x08017bc3   Data           6  dfs_posix.o(.rodata.name)
    __fsym_mkdir_desc                        0x08017bc9   Data          19  dfs_posix.o(.rodata.name)
    __fsym_cd_name                           0x08017bdc   Data           3  dfs_posix.o(.rodata.name)
    __fsym_cd_desc                           0x08017bdf   Data          33  dfs_posix.o(.rodata.name)
    __fsym_pinMode_name                      0x08017c00   Data           8  pin.o(.rodata.name)
    __fsym_pinMode_desc                      0x08017c08   Data          22  pin.o(.rodata.name)
    __fsym_pinWrite_name                     0x08017c1e   Data           9  pin.o(.rodata.name)
    __fsym_pinWrite_desc                     0x08017c27   Data          28  pin.o(.rodata.name)
    __fsym_pinRead_name                      0x08017c43   Data           8  pin.o(.rodata.name)
    __fsym_pinRead_desc                      0x08017c4b   Data          30  pin.o(.rodata.name)
    __fsym_hello_name                        0x08017c69   Data           6  cmd.o(.rodata.name)
    __fsym_hello_desc                        0x08017c6f   Data          16  cmd.o(.rodata.name)
    __fsym_version_name                      0x08017c7f   Data           8  cmd.o(.rodata.name)
    __fsym_version_desc                      0x08017c87   Data          35  cmd.o(.rodata.name)
    __fsym___cmd_version_name                0x08017caa   Data          14  cmd.o(.rodata.name)
    __fsym___cmd_version_desc                0x08017cb8   Data          35  cmd.o(.rodata.name)
    __fsym_list_thread_name                  0x08017cdb   Data          12  cmd.o(.rodata.name)
    __fsym_list_thread_desc                  0x08017ce7   Data          12  cmd.o(.rodata.name)
    __fsym___cmd_list_thread_name            0x08017cf3   Data          18  cmd.o(.rodata.name)
    __fsym___cmd_list_thread_desc            0x08017d05   Data          12  cmd.o(.rodata.name)
    __fsym_list_sem_name                     0x08017d11   Data           9  cmd.o(.rodata.name)
    __fsym_list_sem_desc                     0x08017d1a   Data          25  cmd.o(.rodata.name)
    __fsym___cmd_list_sem_name               0x08017d33   Data          15  cmd.o(.rodata.name)
    __fsym___cmd_list_sem_desc               0x08017d42   Data          25  cmd.o(.rodata.name)
    __fsym_list_event_name                   0x08017d5b   Data          11  cmd.o(.rodata.name)
    __fsym_list_event_desc                   0x08017d66   Data          21  cmd.o(.rodata.name)
    __fsym___cmd_list_event_name             0x08017d7b   Data          17  cmd.o(.rodata.name)
    __fsym___cmd_list_event_desc             0x08017d8c   Data          21  cmd.o(.rodata.name)
    __fsym_list_mutex_name                   0x08017da1   Data          11  cmd.o(.rodata.name)
    __fsym_list_mutex_desc                   0x08017dac   Data          21  cmd.o(.rodata.name)
    __fsym___cmd_list_mutex_name             0x08017dc1   Data          17  cmd.o(.rodata.name)
    __fsym___cmd_list_mutex_desc             0x08017dd2   Data          21  cmd.o(.rodata.name)
    __fsym_list_mailbox_name                 0x08017de7   Data          13  cmd.o(.rodata.name)
    __fsym_list_mailbox_desc                 0x08017df4   Data          24  cmd.o(.rodata.name)
    __fsym___cmd_list_mailbox_name           0x08017e0c   Data          19  cmd.o(.rodata.name)
    __fsym___cmd_list_mailbox_desc           0x08017e1f   Data          24  cmd.o(.rodata.name)
    __fsym_list_msgqueue_name                0x08017e37   Data          14  cmd.o(.rodata.name)
    __fsym_list_msgqueue_desc                0x08017e45   Data          29  cmd.o(.rodata.name)
    __fsym___cmd_list_msgqueue_name          0x08017e62   Data          20  cmd.o(.rodata.name)
    __fsym___cmd_list_msgqueue_desc          0x08017e76   Data          29  cmd.o(.rodata.name)
    __fsym_list_memheap_name                 0x08017e93   Data          13  cmd.o(.rodata.name)
    __fsym_list_memheap_desc                 0x08017ea0   Data          27  cmd.o(.rodata.name)
    __fsym___cmd_list_memheap_name           0x08017ebb   Data          19  cmd.o(.rodata.name)
    __fsym___cmd_list_memheap_desc           0x08017ece   Data          27  cmd.o(.rodata.name)
    __fsym_list_mempool_name                 0x08017ee9   Data          13  cmd.o(.rodata.name)
    __fsym_list_mempool_desc                 0x08017ef6   Data          27  cmd.o(.rodata.name)
    __fsym___cmd_list_mempool_name           0x08017f11   Data          19  cmd.o(.rodata.name)
    __fsym___cmd_list_mempool_desc           0x08017f24   Data          27  cmd.o(.rodata.name)
    __fsym_list_timer_name                   0x08017f3f   Data          11  cmd.o(.rodata.name)
    __fsym_list_timer_desc                   0x08017f4a   Data          21  cmd.o(.rodata.name)
    __fsym___cmd_list_timer_name             0x08017f5f   Data          17  cmd.o(.rodata.name)
    __fsym___cmd_list_timer_desc             0x08017f70   Data          21  cmd.o(.rodata.name)
    __fsym_list_device_name                  0x08017f85   Data          12  cmd.o(.rodata.name)
    __fsym_list_device_desc                  0x08017f91   Data          22  cmd.o(.rodata.name)
    __fsym___cmd_list_device_name            0x08017fa7   Data          18  cmd.o(.rodata.name)
    __fsym___cmd_list_device_desc            0x08017fb9   Data          22  cmd.o(.rodata.name)
    __fsym_list_name                         0x08017fcf   Data           5  cmd.o(.rodata.name)
    __fsym_list_desc                         0x08017fd4   Data          26  cmd.o(.rodata.name)
    __fsym___cmd_help_name                   0x08017fee   Data          11  msh.o(.rodata.name)
    __fsym___cmd_help_desc                   0x08017ff9   Data          22  msh.o(.rodata.name)
    __fsym___cmd_ls_name                     0x0801800f   Data           9  msh_cmd.o(.rodata.name)
    __fsym___cmd_ls_desc                     0x08018018   Data          34  msh_cmd.o(.rodata.name)
    __fsym___cmd_cp_name                     0x0801803a   Data           9  msh_cmd.o(.rodata.name)
    __fsym___cmd_cp_desc                     0x08018043   Data          21  msh_cmd.o(.rodata.name)
    __fsym___cmd_mv_name                     0x08018058   Data           9  msh_cmd.o(.rodata.name)
    __fsym___cmd_mv_desc                     0x08018061   Data          23  msh_cmd.o(.rodata.name)
    __fsym___cmd_cat_name                    0x08018078   Data          10  msh_cmd.o(.rodata.name)
    __fsym___cmd_cat_desc                    0x08018082   Data          20  msh_cmd.o(.rodata.name)
    __fsym___cmd_rm_name                     0x08018096   Data           9  msh_cmd.o(.rodata.name)
    __fsym___cmd_rm_desc                     0x0801809f   Data          28  msh_cmd.o(.rodata.name)
    __fsym___cmd_cd_name                     0x080180bb   Data           9  msh_cmd.o(.rodata.name)
    __fsym___cmd_cd_desc                     0x080180c4   Data          36  msh_cmd.o(.rodata.name)
    __fsym___cmd_pwd_name                    0x080180e8   Data          10  msh_cmd.o(.rodata.name)
    __fsym___cmd_pwd_desc                    0x080180f2   Data          49  msh_cmd.o(.rodata.name)
    __fsym___cmd_mkdir_name                  0x08018123   Data          12  msh_cmd.o(.rodata.name)
    __fsym___cmd_mkdir_desc                  0x0801812f   Data          22  msh_cmd.o(.rodata.name)
    __fsym___cmd_mkfs_name                   0x08018145   Data          11  msh_cmd.o(.rodata.name)
    __fsym___cmd_mkfs_desc                   0x08018150   Data          29  msh_cmd.o(.rodata.name)
    __fsym___cmd_df_name                     0x0801816d   Data           9  msh_cmd.o(.rodata.name)
    __fsym___cmd_df_desc                     0x08018176   Data          10  msh_cmd.o(.rodata.name)
    __fsym___cmd_echo_name                   0x08018180   Data          11  msh_cmd.o(.rodata.name)
    __fsym___cmd_echo_desc                   0x0801818b   Data          20  msh_cmd.o(.rodata.name)
    __fsym___cmd_ps_name                     0x0801819f   Data           9  msh_cmd.o(.rodata.name)
    __fsym___cmd_ps_desc                     0x080181a8   Data          28  msh_cmd.o(.rodata.name)
    __fsym___cmd_time_name                   0x080181c4   Data          11  msh_cmd.o(.rodata.name)
    __fsym___cmd_time_desc                   0x080181cf   Data          27  msh_cmd.o(.rodata.name)
    __fsym___cmd_free_name                   0x080181ea   Data          11  msh_cmd.o(.rodata.name)
    __fsym___cmd_free_desc                   0x080181f5   Data          37  msh_cmd.o(.rodata.name)
    __rt_init_rti_start                      0x0801821c   Data           4  components.o(.rti_fn.0)
    __rt_init_rti_board_start                0x08018220   Data           4  components.o(.rti_fn.0.end)
    __rt_init_rt_hw_pin_init                 0x08018224   Data           4  drv_gpio.o(.rti_fn.1)
    __rt_init_hw_usart_init                  0x08018228   Data           4  drv_usart.o(.rti_fn.1)
    __rt_init_rti_board_end                  0x0801822c   Data           4  components.o(.rti_fn.1.end)
    __rt_init_dfs_init                       0x08018230   Data           4  dfs.o(.rti_fn.2)
    __rt_init_stm_usbd_register              0x08018234   Data           4  drv_usbd.o(.rti_fn.3)
    __rt_init_dfs_ramfs_init                 0x08018238   Data           4  dfs_ramfs.o(.rti_fn.4)
    __rt_init_libc_system_init               0x0801823c   Data           4  libc.o(.rti_fn.4)
    __rt_init_application_usb_init           0x08018240   Data           4  usb_winusb.o(.rti_fn.6)
    __rt_init_finsh_system_init              0x08018244   Data           4  shell.o(.rti_fn.6)
    __rt_init_rti_end                        0x08018248   Data           4  components.o(.rti_fn.6.end)
    FSymTab$$Base                            0x0801824c   Number         0  mem.o(FSymTab)
    __fsym_list_mem                          0x0801824c   Data          12  mem.o(FSymTab)
    __fsym___cmd_list_fd                     0x08018258   Data          12  dfs.o(FSymTab)
    __fsym_ls                                0x08018264   Data          12  dfs_file.o(FSymTab)
    __fsym_rm                                0x08018270   Data          12  dfs_file.o(FSymTab)
    __fsym_cat                               0x0801827c   Data          12  dfs_file.o(FSymTab)
    __fsym_copy                              0x08018288   Data          12  dfs_file.o(FSymTab)
    __fsym_mkfs                              0x08018294   Data          12  dfs_fs.o(FSymTab)
    __fsym_df                                0x080182a0   Data          12  dfs_fs.o(FSymTab)
    __fsym_mkdir                             0x080182ac   Data          12  dfs_posix.o(FSymTab)
    __fsym_cd                                0x080182b8   Data          12  dfs_posix.o(FSymTab)
    __fsym_pinMode                           0x080182c4   Data          12  pin.o(FSymTab)
    __fsym_pinWrite                          0x080182d0   Data          12  pin.o(FSymTab)
    __fsym_pinRead                           0x080182dc   Data          12  pin.o(FSymTab)
    __fsym_hello                             0x080182e8   Data          12  cmd.o(FSymTab)
    __fsym_version                           0x080182f4   Data          12  cmd.o(FSymTab)
    __fsym___cmd_version                     0x08018300   Data          12  cmd.o(FSymTab)
    __fsym_list_thread                       0x0801830c   Data          12  cmd.o(FSymTab)
    __fsym___cmd_list_thread                 0x08018318   Data          12  cmd.o(FSymTab)
    __fsym_list_sem                          0x08018324   Data          12  cmd.o(FSymTab)
    __fsym___cmd_list_sem                    0x08018330   Data          12  cmd.o(FSymTab)
    __fsym_list_event                        0x0801833c   Data          12  cmd.o(FSymTab)
    __fsym___cmd_list_event                  0x08018348   Data          12  cmd.o(FSymTab)
    __fsym_list_mutex                        0x08018354   Data          12  cmd.o(FSymTab)
    __fsym___cmd_list_mutex                  0x08018360   Data          12  cmd.o(FSymTab)
    __fsym_list_mailbox                      0x0801836c   Data          12  cmd.o(FSymTab)
    __fsym___cmd_list_mailbox                0x08018378   Data          12  cmd.o(FSymTab)
    __fsym_list_msgqueue                     0x08018384   Data          12  cmd.o(FSymTab)
    __fsym___cmd_list_msgqueue               0x08018390   Data          12  cmd.o(FSymTab)
    __fsym_list_memheap                      0x0801839c   Data          12  cmd.o(FSymTab)
    __fsym___cmd_list_memheap                0x080183a8   Data          12  cmd.o(FSymTab)
    __fsym_list_mempool                      0x080183b4   Data          12  cmd.o(FSymTab)
    __fsym___cmd_list_mempool                0x080183c0   Data          12  cmd.o(FSymTab)
    __fsym_list_timer                        0x080183cc   Data          12  cmd.o(FSymTab)
    __fsym___cmd_list_timer                  0x080183d8   Data          12  cmd.o(FSymTab)
    __fsym_list_device                       0x080183e4   Data          12  cmd.o(FSymTab)
    __fsym___cmd_list_device                 0x080183f0   Data          12  cmd.o(FSymTab)
    __fsym_list                              0x080183fc   Data          12  cmd.o(FSymTab)
    __fsym___cmd_help                        0x08018408   Data          12  msh.o(FSymTab)
    __fsym___cmd_ls                          0x08018414   Data          12  msh_cmd.o(FSymTab)
    __fsym___cmd_cp                          0x08018420   Data          12  msh_cmd.o(FSymTab)
    __fsym___cmd_mv                          0x0801842c   Data          12  msh_cmd.o(FSymTab)
    __fsym___cmd_cat                         0x08018438   Data          12  msh_cmd.o(FSymTab)
    __fsym___cmd_rm                          0x08018444   Data          12  msh_cmd.o(FSymTab)
    __fsym___cmd_cd                          0x08018450   Data          12  msh_cmd.o(FSymTab)
    __fsym___cmd_pwd                         0x0801845c   Data          12  msh_cmd.o(FSymTab)
    __fsym___cmd_mkdir                       0x08018468   Data          12  msh_cmd.o(FSymTab)
    __fsym___cmd_mkfs                        0x08018474   Data          12  msh_cmd.o(FSymTab)
    __fsym___cmd_df                          0x08018480   Data          12  msh_cmd.o(FSymTab)
    __fsym___cmd_echo                        0x0801848c   Data          12  msh_cmd.o(FSymTab)
    __fsym___cmd_ps                          0x08018498   Data          12  msh_cmd.o(FSymTab)
    __fsym___cmd_time                        0x080184a4   Data          12  msh_cmd.o(FSymTab)
    __fsym___cmd_free                        0x080184b0   Data          12  msh_cmd.o(FSymTab)
    FSymTab$$Limit                           0x080184bc   Number         0  msh_cmd.o(FSymTab)
    Region$$Table$$Base                      0x080184bc   Number         0  anon$$obj.o(Region$$Table)
    Region$$Table$$Limit                     0x080184dc   Number         0  anon$$obj.o(Region$$Table)
    pin_irq_hdr_tab                          0x20000000   Data         192  drv_gpio.o(.data)
    SystemCoreClock                          0x20000100   Data           4  system_stm32f4xx.o(.data)
    uwTick                                   0x20000104   Data           4  stm32f4xx_hal.o(.data)
    rt_interrupt_nest                        0x2000011c   Data           1  irq.o(.data)
    rt_assert_hook                           0x20000128   Data           4  kservice.o(.data)
    rt_object_trytake_hook                   0x200001f4   Data           4  object.o(.data)
    rt_object_take_hook                      0x200001f8   Data           4  object.o(.data)
    rt_object_put_hook                       0x200001fc   Data           4  object.o(.data)
    rt_current_thread                        0x20000204   Data           4  scheduler.o(.data)
    rt_current_priority                      0x20000208   Data           1  scheduler.o(.data)
    rt_thread_ready_priority_group           0x2000020c   Data           4  scheduler.o(.data)
    rt_thread_defunct                        0x20000210   Data           8  scheduler.o(.data)
    rt_interrupt_from_thread                 0x20000238   Data           4  cpuport.o(.data)
    rt_interrupt_to_thread                   0x2000023c   Data           4  cpuport.o(.data)
    rt_thread_switch_interrupt_flag          0x20000240   Data           4  cpuport.o(.data)
    filesystem_operation_table               0x20000248   Data           8  dfs.o(.data)
    working_directory                        0x20000250   Data         256  dfs.o(.data)
    usb_comp_id_desc                         0x20000360   Data          24  usbdevice.o(.data)
    _winusb_desc                             0x20000394   Data          23  winusb.o(.data)
    winusb_proerty                           0x200003c8   Data          22  winusb.o(.data)
    winusb_func_comp_id_desc                 0x200003de   Data          32  winusb.o(.data)
    shell                                    0x20000414   Data           4  shell.o(.data)
    _syscall_table_begin                     0x20000418   Data           4  symbol.o(.data)
    _syscall_table_end                       0x2000041c   Data           4  symbol.o(.data)
    _sysvar_table_begin                      0x20000420   Data           4  symbol.o(.data)
    _sysvar_table_end                        0x20000424   Data           4  symbol.o(.data)
    __aeabi_stdin                            0x2000042c   Data           4  stdio_streams.o(.data)
    __aeabi_stdout                           0x20000430   Data           4  stdio_streams.o(.data)
    __aeabi_stderr                           0x20000434   Data           4  stdio_streams.o(.data)
    serial3                                  0x20009778   Data          96  drv_usart.o(.bss)
    rt_thread_priority_table                 0x20009e90   Data         256  scheduler.o(.bss)
    filesystem_table                         0x20009f90   Data          32  dfs.o(.bss)
    fd_table                                 0x20009fd4   Data         128  dfs.o(.bss)
    __stdin                                  0x2000b7c0   Data          84  stdio_streams.o(.bss)
    __stdout                                 0x2000b814   Data          84  stdio_streams.o(.bss)
    __stderr                                 0x2000b868   Data          84  stdio_streams.o(.bss)
    __libspace_start                         0x2000b8bc   Data          96  libspace.o(.bss)
    __temporary_stack_top$libspace           0x2000b91c   Data           0  libspace.o(.bss)
    Image$$RW_IRAM1$$ZI$$Limit               0x2000bf20   Number         0  anon$$obj.o ABSOLUTE



==============================================================================

Memory Map of the image

  Image Entry point : 0x080001c5

  Load Region LR_IROM1 (Base: 0x08000000, Size: 0x00018914, Max: 0x00100000, ABSOLUTE, COMPRESSED[0x000185d0])

    Execution Region ER_IROM1 (Exec base: 0x08000000, Load base: 0x08000000, Size: 0x000184dc, Max: 0x00100000, ABSOLUTE)

    Exec Addr    Load Addr    Size         Type   Attr      Idx    E Section Name        Object

    0x08000000   0x08000000   0x000001c4   Data   RO          507    RESET               startup_stm32f412zx.o
    0x080001c4   0x080001c4   0x00000008   Code   RO         3167  * !!!main             c_w.l(__main.o)
    0x080001cc   0x080001cc   0x00000034   Code   RO         3410    !!!scatter          c_w.l(__scatter.o)
    0x08000200   0x08000200   0x0000005a   Code   RO         3408    !!dczerorl2         c_w.l(__dczerorl2.o)
    0x0800025a   0x0800025a   0x00000002   PAD
    0x0800025c   0x0800025c   0x0000001c   Code   RO         3412    !!handler_zi        c_w.l(__scatter_zi.o)
    0x08000278   0x08000278   0x00000000   Code   RO         3118    .ARM.Collect$$_printf_percent$$00000000  c_w.l(_printf_percent.o)
    0x08000278   0x08000278   0x00000006   Code   RO         3117    .ARM.Collect$$_printf_percent$$00000014  c_w.l(_printf_s.o)
    0x0800027e   0x0800027e   0x00000004   Code   RO         3184    .ARM.Collect$$_printf_percent$$00000017  c_w.l(_printf_percent_end.o)
    0x08000282   0x08000282   0x00000002   Code   RO         3348    .ARM.Collect$$libinit$$00000000  c_w.l(libinit.o)
    0x08000284   0x08000284   0x00000004   Code   RO         3239    .ARM.Collect$$libinit$$00000001  c_w.l(libinit2.o)
    0x08000288   0x08000288   0x00000000   Code   RO         3242    .ARM.Collect$$libinit$$00000004  c_w.l(libinit2.o)
    0x08000288   0x08000288   0x00000000   Code   RO         3245    .ARM.Collect$$libinit$$0000000A  c_w.l(libinit2.o)
    0x08000288   0x08000288   0x00000000   Code   RO         3247    .ARM.Collect$$libinit$$0000000C  c_w.l(libinit2.o)
    0x08000288   0x08000288   0x00000000   Code   RO         3249    .ARM.Collect$$libinit$$0000000E  c_w.l(libinit2.o)
    0x08000288   0x08000288   0x00000000   Code   RO         3252    .ARM.Collect$$libinit$$00000011  c_w.l(libinit2.o)
    0x08000288   0x08000288   0x00000000   Code   RO         3254    .ARM.Collect$$libinit$$00000013  c_w.l(libinit2.o)
    0x08000288   0x08000288   0x00000000   Code   RO         3256    .ARM.Collect$$libinit$$00000015  c_w.l(libinit2.o)
    0x08000288   0x08000288   0x00000000   Code   RO         3258    .ARM.Collect$$libinit$$00000017  c_w.l(libinit2.o)
    0x08000288   0x08000288   0x00000000   Code   RO         3260    .ARM.Collect$$libinit$$00000019  c_w.l(libinit2.o)
    0x08000288   0x08000288   0x00000000   Code   RO         3262    .ARM.Collect$$libinit$$0000001B  c_w.l(libinit2.o)
    0x08000288   0x08000288   0x00000000   Code   RO         3264    .ARM.Collect$$libinit$$0000001D  c_w.l(libinit2.o)
    0x08000288   0x08000288   0x00000000   Code   RO         3266    .ARM.Collect$$libinit$$0000001F  c_w.l(libinit2.o)
    0x08000288   0x08000288   0x00000000   Code   RO         3268    .ARM.Collect$$libinit$$00000021  c_w.l(libinit2.o)
    0x08000288   0x08000288   0x00000000   Code   RO         3270    .ARM.Collect$$libinit$$00000023  c_w.l(libinit2.o)
    0x08000288   0x08000288   0x00000004   Code   RO         3271    .ARM.Collect$$libinit$$00000024  c_w.l(libinit2.o)
    0x0800028c   0x0800028c   0x00000000   Code   RO         3272    .ARM.Collect$$libinit$$00000025  c_w.l(libinit2.o)
    0x0800028c   0x0800028c   0x00000000   Code   RO         3276    .ARM.Collect$$libinit$$0000002C  c_w.l(libinit2.o)
    0x0800028c   0x0800028c   0x00000000   Code   RO         3278    .ARM.Collect$$libinit$$0000002E  c_w.l(libinit2.o)
    0x0800028c   0x0800028c   0x00000000   Code   RO         3280    .ARM.Collect$$libinit$$00000030  c_w.l(libinit2.o)
    0x0800028c   0x0800028c   0x00000000   Code   RO         3282    .ARM.Collect$$libinit$$00000032  c_w.l(libinit2.o)
    0x0800028c   0x0800028c   0x00000002   Code   RO         3283    .ARM.Collect$$libinit$$00000033  c_w.l(libinit2.o)
    0x0800028e   0x0800028e   0x00000002   Code   RO         3405    .ARM.Collect$$libshutdown$$00000000  c_w.l(libshutdown.o)
    0x08000290   0x08000290   0x00000000   Code   RO         3285    .ARM.Collect$$libshutdown$$00000002  c_w.l(libshutdown2.o)
    0x08000290   0x08000290   0x00000004   Code   RO         3286    .ARM.Collect$$libshutdown$$00000003  c_w.l(libshutdown2.o)
    0x08000294   0x08000294   0x00000000   Code   RO         3287    .ARM.Collect$$libshutdown$$00000004  c_w.l(libshutdown2.o)
    0x08000294   0x08000294   0x00000000   Code   RO         3290    .ARM.Collect$$libshutdown$$00000007  c_w.l(libshutdown2.o)
    0x08000294   0x08000294   0x00000000   Code   RO         3293    .ARM.Collect$$libshutdown$$0000000A  c_w.l(libshutdown2.o)
    0x08000294   0x08000294   0x00000000   Code   RO         3295    .ARM.Collect$$libshutdown$$0000000C  c_w.l(libshutdown2.o)
    0x08000294   0x08000294   0x00000000   Code   RO         3298    .ARM.Collect$$libshutdown$$0000000F  c_w.l(libshutdown2.o)
    0x08000294   0x08000294   0x00000002   Code   RO         3299    .ARM.Collect$$libshutdown$$00000010  c_w.l(libshutdown2.o)
    0x08000296   0x08000296   0x00000000   Code   RO         3171    .ARM.Collect$$rtentry$$00000000  c_w.l(__rtentry.o)
    0x08000296   0x08000296   0x00000000   Code   RO         3207    .ARM.Collect$$rtentry$$00000002  c_w.l(__rtentry2.o)
    0x08000296   0x08000296   0x00000006   Code   RO         3219    .ARM.Collect$$rtentry$$00000004  c_w.l(__rtentry4.o)
    0x0800029c   0x0800029c   0x00000000   Code   RO         3209    .ARM.Collect$$rtentry$$00000009  c_w.l(__rtentry2.o)
    0x0800029c   0x0800029c   0x00000004   Code   RO         3210    .ARM.Collect$$rtentry$$0000000A  c_w.l(__rtentry2.o)
    0x080002a0   0x080002a0   0x00000000   Code   RO         3212    .ARM.Collect$$rtentry$$0000000C  c_w.l(__rtentry2.o)
    0x080002a0   0x080002a0   0x00000008   Code   RO         3213    .ARM.Collect$$rtentry$$0000000D  c_w.l(__rtentry2.o)
    0x080002a8   0x080002a8   0x00000002   Code   RO         3354    .ARM.Collect$$rtexit$$00000000  c_w.l(rtexit.o)
    0x080002aa   0x080002aa   0x00000000   Code   RO         3375    .ARM.Collect$$rtexit$$00000002  c_w.l(rtexit2.o)
    0x080002aa   0x080002aa   0x00000004   Code   RO         3376    .ARM.Collect$$rtexit$$00000003  c_w.l(rtexit2.o)
    0x080002ae   0x080002ae   0x00000006   Code   RO         3377    .ARM.Collect$$rtexit$$00000004  c_w.l(rtexit2.o)
    0x080002b4   0x080002b4   0x0000002c   Code   RO            4    .text               main.o
    0x080002e0   0x080002e0   0x00000248   Code   RO          251    .text               usb_winusb.o
    0x08000528   0x08000528   0x00000274   Code   RO          279    .text               board.o
    0x0800079c   0x0800079c   0x00000010   Code   RO          319    .text               stm32f4xx_it.o
    0x080007ac   0x080007ac   0x00000590   Code   RO          343    .text               drv_gpio.o
    0x08000d3c   0x08000d3c   0x000004ac   Code   RO          408    .text               drv_usart.o
    0x080011e8   0x080011e8   0x00000390   Code   RO          444    .text               drv_usbd.o
    0x08001578   0x08001578   0x00000120   Code   RO          477    .text               system_stm32f4xx.o
    0x08001698   0x08001698   0x00000040   Code   RO          508    .text               startup_stm32f412zx.o
    0x080016d8   0x080016d8   0x000001a4   Code   RO          515    .text               stm32f4xx_hal.o
    0x0800187c   0x0800187c   0x00000384   Code   RO          614    .text               stm32f4xx_hal_cortex.o
    0x08001c00   0x08001c00   0x000008ac   Code   RO          786    .text               stm32f4xx_hal_dma.o
    0x080024ac   0x080024ac   0x00000390   Code   RO         1001    .text               stm32f4xx_hal_gpio.o
    0x0800283c   0x0800283c   0x00000d6c   Code   RO         1319    .text               stm32f4xx_hal_pcd.o
    0x080035a8   0x080035a8   0x00000194   Code   RO         1343    .text               stm32f4xx_hal_pcd_ex.o
    0x0800373c   0x0800373c   0x0000089c   Code   RO         1433    .text               stm32f4xx_hal_rcc.o
    0x08003fd8   0x08003fd8   0x00000c54   Code   RO         1457    .text               stm32f4xx_hal_rcc_ex.o
    0x08004c2c   0x08004c2c   0x000013ae   Code   RO         1727    .text               stm32f4xx_hal_uart.o
    0x08005fda   0x08005fda   0x00000002   PAD
    0x08005fdc   0x08005fdc   0x000015d6   Code   RO         1895    .text               stm32f4xx_ll_usb.o
    0x080075b2   0x080075b2   0x00000002   PAD
    0x080075b4   0x080075b4   0x0000006c   Code   RO         1953    .text               clock.o
    0x08007620   0x08007620   0x000000d8   Code   RO         1967    .text               components.o
    0x080076f8   0x080076f8   0x000003a8   Code   RO         1986    .text               device.o
    0x08007aa0   0x08007aa0   0x00000138   Code   RO         2002    .text               idle.o
    0x08007bd8   0x08007bd8   0x00001658   Code   RO         2022    .text               ipc.o
    0x08009230   0x08009230   0x0000007c   Code   RO         2039    .text               irq.o
    0x080092ac   0x080092ac   0x00000ab0   Code   RO         2054    .text               kservice.o
    0x08009d5c   0x08009d5c   0x000008f0   Code   RO         2074    .text               mem.o
    0x0800a64c   0x0800a64c   0x00000630   Code   RO         2101    .text               memheap.o
    0x0800ac7c   0x0800ac7c   0x00000344   Code   RO         2132    .text               object.o
    0x0800afc0   0x0800afc0   0x000002fc   Code   RO         2151    .text               scheduler.o
    0x0800b2bc   0x0800b2bc   0x00000680   Code   RO         2187    .text               thread.o
    0x0800b93c   0x0800b93c   0x0000045c   Code   RO         2206    .text               timer.o
    0x0800bd98   0x0800bd98   0x00000190   Code   RO         2225    .text               cpuport.o
    0x0800bf28   0x0800bf28   0x00000110   Code   RO         2241    .text               context_rvds.o
    0x0800c038   0x0800c038   0x00000470   Code   RO         2279    .text               dfs.o
    0x0800c4a8   0x0800c4a8   0x000009c8   Code   RO         2377    .text               dfs_file.o
    0x0800ce70   0x0800ce70   0x00000690   Code   RO         2398    .text               dfs_fs.o
    0x0800d500   0x0800d500   0x00000688   Code   RO         2416    .text               dfs_posix.o
    0x0800db88   0x0800db88   0x000003a8   Code   RO         2478    .text               devfs.o
    0x0800df30   0x0800df30   0x0000051c   Code   RO         2496    .text               dfs_ramfs.o
    0x0800e44c   0x0800e44c   0x00000250   Code   RO         2516    .text               pin.o
    0x0800e69c   0x0800e69c   0x00000e9c   Code   RO         2534    .text               serial.o
    0x0800f538   0x0800f538   0x000001c8   Code   RO         2606    .text               completion.o
    0x0800f700   0x0800f700   0x00000424   Code   RO         2622    .text               dataqueue.o
    0x0800fb24   0x0800fb24   0x00000180   Code   RO         2727    .text               waitqueue.o
    0x0800fca4   0x0800fca4   0x00002440   Code   RO         2757    .text               core.o
    0x080120e4   0x080120e4   0x000000a4   Code   RO         2779    .text               usbdevice.o
    0x08012188   0x08012188   0x000004e8   Code   RO         2794    .text               winusb.o
    0x08012670   0x08012670   0x000007a0   Code   RO         2817    .text               shell.o
    0x08012e10   0x08012e10   0x00000c04   Code   RO         2855    .text               cmd.o
    0x08013a14   0x08013a14   0x00000548   Code   RO         2876    .text               msh.o
    0x08013f5c   0x08013f5c   0x000004e8   Code   RO         2893    .text               msh_cmd.o
    0x08014444   0x08014444   0x000001a0   Code   RO         2910    .text               msh_file.o
    0x080145e4   0x080145e4   0x00000016   Code   RO         2922    .text               libc.o
    0x080145fa   0x080145fa   0x00000038   Code   RO         2952    .text               mem_std.o
    0x08014632   0x08014632   0x00000002   PAD
    0x08014634   0x08014634   0x00000080   Code   RO         2964    .text               stdio.o
    0x080146b4   0x080146b4   0x000001b0   Code   RO         2978    .text               stubs.o
    0x08014864   0x08014864   0x00000002   Code   RO         3081    .text               c_w.l(use_no_semi.o)
    0x08014866   0x08014866   0x00000004   Code   RO         3083    .text               c_w.l(hguard.o)
    0x0801486a   0x0801486a   0x000000ee   Code   RO         3085    .text               c_w.l(lludivv7m.o)
    0x08014958   0x08014958   0x00000048   Code   RO         3087    .text               c_w.l(llsdiv.o)
    0x080149a0   0x080149a0   0x00000034   Code   RO         3091    .text               c_w.l(noretval__2snprintf.o)
    0x080149d4   0x080149d4   0x00000068   Code   RO         3093    .text               c_w.l(__printf.o)
    0x08014a3c   0x08014a3c   0x00000052   Code   RO         3095    .text               c_w.l(_printf_str.o)
    0x08014a8e   0x08014a8e   0x00000004   Code   RO         3123    .text               c_w.l(getc.o)
    0x08014a92   0x08014a92   0x00000002   PAD
    0x08014a94   0x08014a94   0x000000ec   Code   RO         3125    .text               c_w.l(fopen.o)
    0x08014b80   0x08014b80   0x0000004c   Code   RO         3133    .text               c_w.l(fclose.o)
    0x08014bcc   0x08014bcc   0x00000024   Code   RO         3139    .text               c_w.l(strstr.o)
    0x08014bf0   0x08014bf0   0x00000058   Code   RO         3141    .text               c_w.l(memcmp.o)
    0x08014c48   0x08014c48   0x00000048   Code   RO         3143    .text               c_w.l(strcpy.o)
    0x08014c90   0x08014c90   0x00000016   Code   RO         3145    .text               c_w.l(strrchr.o)
    0x08014ca6   0x08014ca6   0x0000003e   Code   RO         3147    .text               c_w.l(strlen.o)
    0x08014ce4   0x08014ce4   0x00000096   Code   RO         3149    .text               c_w.l(strncmp.o)
    0x08014d7a   0x08014d7a   0x00000018   Code   RO         3151    .text               c_w.l(strcat.o)
    0x08014d92   0x08014d92   0x0000008a   Code   RO         3153    .text               c_w.l(rt_memcpy_v6.o)
    0x08014e1c   0x08014e1c   0x00000064   Code   RO         3155    .text               c_w.l(rt_memcpy_w.o)
    0x08014e80   0x08014e80   0x00000044   Code   RO         3157    .text               c_w.l(rt_memclr.o)
    0x08014ec4   0x08014ec4   0x0000004e   Code   RO         3159    .text               c_w.l(rt_memclr_w.o)
    0x08014f12   0x08014f12   0x00000056   Code   RO         3161    .text               c_w.l(strncpy.o)
    0x08014f68   0x08014f68   0x00000080   Code   RO         3163    .text               c_w.l(strcmpv7m.o)
    0x08014fe8   0x08014fe8   0x00000006   Code   RO         3165    .text               c_w.l(heapauxi.o)
    0x08014fee   0x08014fee   0x00000002   PAD
    0x08014ff0   0x08014ff0   0x00000030   Code   RO         3176    .text               c_w.l(_printf_char_common.o)
    0x08015020   0x08015020   0x0000000a   Code   RO         3178    .text               c_w.l(_sputc.o)
    0x0801502a   0x0801502a   0x00000010   Code   RO         3180    .text               c_w.l(_snputc.o)
    0x0801503a   0x0801503a   0x0000002c   Code   RO         3182    .text               c_w.l(_printf_char.o)
    0x08015066   0x08015066   0x00000002   PAD
    0x08015068   0x08015068   0x000000f8   Code   RO         3193    .text               c_w.l(fseek.o)
    0x08015160   0x08015160   0x000000f0   Code   RO         3195    .text               c_w.l(stdio.o)
    0x08015250   0x08015250   0x00000138   Code   RO         3198    .text               c_w.l(initio.o)
    0x08015388   0x08015388   0x0000023a   Code   RO         3225    .text               c_w.l(filbuf.o)
    0x080155c2   0x080155c2   0x000001d6   Code   RO         3227    .text               c_w.l(flsbuf.o)
    0x08015798   0x08015798   0x00000042   Code   RO         3229    .text               c_w.l(ftell.o)
    0x080157da   0x080157da   0x00000046   Code   RO         3231    .text               c_w.l(setvbuf.o)
    0x08015820   0x08015820   0x0000000e   Code   RO         3235    .text               c_w.l(defsig_rtred_outer.o)
    0x0801582e   0x0801582e   0x0000004a   Code   RO         3304    .text               c_w.l(sys_stackheap_outer.o)
    0x08015878   0x08015878   0x00000008   Code   RO         3311    .text               c_w.l(rt_errno_addr_intlibspace.o)
    0x08015880   0x08015880   0x00000118   Code   RO         3313    .text               c_w.l(freadfast.o)
    0x08015998   0x08015998   0x000000bc   Code   RO         3317    .text               c_w.l(fwritefast.o)
    0x08015a54   0x08015a54   0x00000038   Code   RO         3319    .text               c_w.l(flushlinebuffered.o)
    0x08015a8c   0x08015a8c   0x00000012   Code   RO         3329    .text               c_w.l(exit.o)
    0x08015a9e   0x08015a9e   0x0000000a   Code   RO         3331    .text               c_w.l(defsig_exit.o)
    0x08015aa8   0x08015aa8   0x00000034   Code   RO         3337    .text               c_w.l(defsig_rtred_inner.o)
    0x08015adc   0x08015adc   0x00000008   Code   RO         3351    .text               c_w.l(libspace.o)
    0x08015ae4   0x08015ae4   0x00000064   Code   RO         3356    .text               c_w.l(fflush.o)
    0x08015b48   0x08015b48   0x00000032   Code   RO         3366    .text               c_w.l(defsig_general.o)
    0x08015b7a   0x08015b7a   0x00000018   Code   RO         3186    i.fgetc             c_w.l(fgetc.o)
    0x08015b92   0x08015b92   0x0000000a   Code   RO         3349    x$fpl$fpinit        fz_wm.l(fpinit.o)
    0x08015b9c   0x08015b9c   0x00000026   Data   RO          253    .constdata          usb_winusb.o
    0x08015bc2   0x08015bc2   0x00000002   PAD
    0x08015bc4   0x08015bc4   0x00000968   Data   RO          344    .constdata          drv_gpio.o
    0x0801652c   0x0801652c   0x00000048   Data   RO          410    .constdata          drv_usart.o
    0x08016574   0x08016574   0x00000050   Data   RO          446    .constdata          drv_usbd.o
    0x080165c4   0x080165c4   0x00000018   Data   RO          478    .constdata          system_stm32f4xx.o
    0x080165dc   0x080165dc   0x00000008   Data   RO          787    .constdata          stm32f4xx_hal_dma.o
    0x080165e4   0x080165e4   0x00000014   Data   RO         1968    .constdata          components.o
    0x080165f8   0x080165f8   0x000000b7   Data   RO         1987    .constdata          device.o
    0x080166af   0x080166af   0x00000016   Data   RO         2004    .constdata          idle.o
    0x080166c5   0x080166c5   0x000001d7   Data   RO         2023    .constdata          ipc.o
    0x0801689c   0x0801689c   0x00000122   Data   RO         2056    .constdata          kservice.o
    0x080169be   0x080169be   0x00000046   Data   RO         2076    .constdata          mem.o
    0x08016a04   0x08016a04   0x00000056   Data   RO         2102    .constdata          memheap.o
    0x08016a5a   0x08016a5a   0x0000006d   Data   RO         2133    .constdata          object.o
    0x08016ac7   0x08016ac7   0x0000004e   Data   RO         2153    .constdata          scheduler.o
    0x08016b15   0x08016b15   0x000000b9   Data   RO         2188    .constdata          thread.o
    0x08016bce   0x08016bce   0x0000005c   Data   RO         2207    .constdata          timer.o
    0x08016c2a   0x08016c2a   0x00000013   Data   RO         2226    .constdata          cpuport.o
    0x08016c3d   0x08016c3d   0x00000023   Data   RO         2281    .constdata          dfs.o
    0x08016c60   0x08016c60   0x00000040   Data   RO         2399    .constdata          dfs_fs.o
    0x08016ca0   0x08016ca0   0x000000c5   Data   RO         2479    .constdata          devfs.o
    0x08016d65   0x08016d65   0x00000003   PAD
    0x08016d68   0x08016d68   0x000000c0   Data   RO         2497    .constdata          dfs_ramfs.o
    0x08016e28   0x08016e28   0x0000007e   Data   RO         2518    .constdata          pin.o
    0x08016ea6   0x08016ea6   0x00000002   PAD
    0x08016ea8   0x08016ea8   0x00000170   Data   RO         2535    .constdata          serial.o
    0x08017018   0x08017018   0x00000039   Data   RO         2607    .constdata          completion.o
    0x08017051   0x08017051   0x0000004b   Data   RO         2623    .constdata          dataqueue.o
    0x0801709c   0x0801709c   0x0000000f   Data   RO         2728    .constdata          waitqueue.o
    0x080170ab   0x080170ab   0x00000640   Data   RO         2759    .constdata          core.o
    0x080176eb   0x080176eb   0x00000076   Data   RO         2795    .constdata          winusb.o
    0x08017761   0x08017761   0x0000001e   Data   RO         2819    .constdata          shell.o
    0x0801777f   0x0801777f   0x00000001   PAD
    0x08017780   0x08017780   0x00000050   Data   RO         2856    .constdata          cmd.o
    0x080177d0   0x080177d0   0x0000000e   Data   RO         2877    .constdata          msh.o
    0x080177de   0x080177de   0x0000001b   Data   RO         2979    .constdata          stubs.o
    0x080177f9   0x080177f9   0x00000003   PAD
    0x080177fc   0x080177fc   0x000000ed   Data   RO         2077    .conststring        mem.o
    0x080178e9   0x080178e9   0x00000003   PAD
    0x080178ec   0x080178ec   0x0000000b   Data   RO         2400    .conststring        dfs_fs.o
    0x080178f7   0x080178f7   0x00000001   PAD
    0x080178f8   0x080178f8   0x00000006   Data   RO         2480    .conststring        devfs.o
    0x080178fe   0x080178fe   0x00000002   PAD
    0x08017900   0x08017900   0x00000004   Data   RO         2498    .conststring        dfs_ramfs.o
    0x08017904   0x08017904   0x0000008f   Data   RO         2796    .conststring        winusb.o
    0x08017993   0x08017993   0x00000001   PAD
    0x08017994   0x08017994   0x0000015d   Data   RO         2857    .conststring        cmd.o
    0x08017af1   0x08017af1   0x00000027   Data   RO         2079    .rodata.name        mem.o
    0x08017b18   0x08017b18   0x00000023   Data   RO         2283    .rodata.name        dfs.o
    0x08017b3b   0x08017b3b   0x0000005f   Data   RO         2379    .rodata.name        dfs_file.o
    0x08017b9a   0x08017b9a   0x00000029   Data   RO         2401    .rodata.name        dfs_fs.o
    0x08017bc3   0x08017bc3   0x0000003d   Data   RO         2417    .rodata.name        dfs_posix.o
    0x08017c00   0x08017c00   0x00000069   Data   RO         2519    .rodata.name        pin.o
    0x08017c69   0x08017c69   0x00000385   Data   RO         2858    .rodata.name        cmd.o
    0x08017fee   0x08017fee   0x00000021   Data   RO         2878    .rodata.name        msh.o
    0x0801800f   0x0801800f   0x0000020b   Data   RO         2894    .rodata.name        msh_cmd.o
    0x0801821a   0x0801821a   0x00000002   PAD
    0x0801821c   0x0801821c   0x00000004   Data   RO         1969    .rti_fn.0           components.o
    0x08018220   0x08018220   0x00000004   Data   RO         1970    .rti_fn.0.end       components.o
    0x08018224   0x08018224   0x00000004   Data   RO          346    .rti_fn.1           drv_gpio.o
    0x08018228   0x08018228   0x00000004   Data   RO          411    .rti_fn.1           drv_usart.o
    0x0801822c   0x0801822c   0x00000004   Data   RO         1971    .rti_fn.1.end       components.o
    0x08018230   0x08018230   0x00000004   Data   RO         2284    .rti_fn.2           dfs.o
    0x08018234   0x08018234   0x00000004   Data   RO          448    .rti_fn.3           drv_usbd.o
    0x08018238   0x08018238   0x00000004   Data   RO         2499    .rti_fn.4           dfs_ramfs.o
    0x0801823c   0x0801823c   0x00000004   Data   RO         2923    .rti_fn.4           libc.o
    0x08018240   0x08018240   0x00000004   Data   RO          254    .rti_fn.6           usb_winusb.o
    0x08018244   0x08018244   0x00000004   Data   RO         2821    .rti_fn.6           shell.o
    0x08018248   0x08018248   0x00000004   Data   RO         1972    .rti_fn.6.end       components.o
    0x0801824c   0x0801824c   0x0000000c   Data   RO         2080    FSymTab             mem.o
    0x08018258   0x08018258   0x0000000c   Data   RO         2285    FSymTab             dfs.o
    0x08018264   0x08018264   0x00000030   Data   RO         2380    FSymTab             dfs_file.o
    0x08018294   0x08018294   0x00000018   Data   RO         2402    FSymTab             dfs_fs.o
    0x080182ac   0x080182ac   0x00000018   Data   RO         2418    FSymTab             dfs_posix.o
    0x080182c4   0x080182c4   0x00000024   Data   RO         2520    FSymTab             pin.o
    0x080182e8   0x080182e8   0x00000120   Data   RO         2859    FSymTab             cmd.o
    0x08018408   0x08018408   0x0000000c   Data   RO         2879    FSymTab             msh.o
    0x08018414   0x08018414   0x000000a8   Data   RO         2895    FSymTab             msh_cmd.o
    0x080184bc   0x080184bc   0x00000020   Data   RO         3406    Region$$Table       anon$$obj.o


    Execution Region RW_IRAM1 (Exec base: 0x20000000, Load base: 0x080184dc, Size: 0x0000bf20, Max: 0x00020000, ABSOLUTE, COMPRESSED[0x000000f4])

    Exec Addr    Load Addr    Size         Type   Attr      Idx    E Section Name        Object

    0x20000000   COMPRESSED   0x000000c0   Data   RW          345    .data               drv_gpio.o
    0x200000c0   COMPRESSED   0x00000040   Data   RW          447    .data               drv_usbd.o
    0x20000100   COMPRESSED   0x00000004   Data   RW          479    .data               system_stm32f4xx.o
    0x20000104   COMPRESSED   0x00000004   Data   RW          516    .data               stm32f4xx_hal.o
    0x20000108   COMPRESSED   0x00000004   Data   RW         1896    .data               stm32f4xx_ll_usb.o
    0x2000010c   COMPRESSED   0x00000004   Data   RW         1954    .data               clock.o
    0x20000110   COMPRESSED   0x00000004   Data   RW         2005    .data               idle.o
    0x20000114   COMPRESSED   0x00000009   Data   RW         2040    .data               irq.o
    0x2000011d   COMPRESSED   0x00000003   PAD
    0x20000120   COMPRESSED   0x0000000c   Data   RW         2057    .data               kservice.o
    0x2000012c   COMPRESSED   0x00000020   Data   RW         2078    .data               mem.o
    0x2000014c   COMPRESSED   0x000000b4   Data   RW         2134    .data               object.o
    0x20000200   COMPRESSED   0x0000001c   Data   RW         2154    .data               scheduler.o
    0x2000021c   COMPRESSED   0x0000000c   Data   RW         2189    .data               thread.o
    0x20000228   COMPRESSED   0x00000010   Data   RW         2208    .data               timer.o
    0x20000238   COMPRESSED   0x00000010   Data   RW         2227    .data               cpuport.o
    0x20000248   COMPRESSED   0x00000108   Data   RW         2282    .data               dfs.o
    0x20000350   COMPRESSED   0x00000010   Data   RW         2760    .data               core.o
    0x20000360   COMPRESSED   0x00000018   Data   RW         2780    .data               usbdevice.o
    0x20000378   COMPRESSED   0x0000009c   Data   RW         2797    .data               winusb.o
    0x20000414   COMPRESSED   0x00000004   Data   RW         2820    .data               shell.o
    0x20000418   COMPRESSED   0x00000010   Data   RW         2842    .data               symbol.o
    0x20000428   COMPRESSED   0x00000004   Data   RW         2965    .data               stdio.o
    0x2000042c   COMPRESSED   0x00000004   Data   RW         3130    .data               c_w.l(stdio_streams.o)
    0x20000430   COMPRESSED   0x00000004   Data   RW         3131    .data               c_w.l(stdio_streams.o)
    0x20000434   COMPRESSED   0x00000004   Data   RW         3132    .data               c_w.l(stdio_streams.o)
    0x20000438        -       0x00008000   Zero   RW            5    .bss                main.o
    0x20008438        -       0x000012fc   Zero   RW          252    .bss                usb_winusb.o
    0x20009734        -       0x000000a4   Zero   RW          409    .bss                drv_usart.o
    0x200097d8        -       0x00000498   Zero   RW          445    .bss                drv_usbd.o
    0x20009c70        -       0x00000180   Zero   RW         2003    .bss                idle.o
    0x20009df0        -       0x00000080   Zero   RW         2055    .bss                kservice.o
    0x20009e70        -       0x00000020   Zero   RW         2075    .bss                mem.o
    0x20009e90        -       0x00000100   Zero   RW         2152    .bss                scheduler.o
    0x20009f90        -       0x000000c4   Zero   RW         2280    .bss                dfs.o
    0x2000a054        -       0x00000124   Zero   RW         2378    .bss                dfs_file.o
    0x2000a178        -       0x00000050   Zero   RW         2517    .bss                pin.o
    0x2000a1c8        -       0x000004f4   Zero   RW         2758    .bss                core.o
    0x2000a6bc        -       0x00001101   Zero   RW         2818    .bss                shell.o
    0x2000b7bd   COMPRESSED   0x00000003   PAD
    0x2000b7c0        -       0x00000054   Zero   RW         3127    .bss                c_w.l(stdio_streams.o)
    0x2000b814        -       0x00000054   Zero   RW         3128    .bss                c_w.l(stdio_streams.o)
    0x2000b868        -       0x00000054   Zero   RW         3129    .bss                c_w.l(stdio_streams.o)
    0x2000b8bc        -       0x00000060   Zero   RW         3352    .bss                c_w.l(libspace.o)
    0x2000b91c   COMPRESSED   0x00000004   PAD
    0x2000b920        -       0x00000200   Zero   RW          506    HEAP                startup_stm32f412zx.o
    0x2000bb20        -       0x00000400   Zero   RW          505    STACK               startup_stm32f412zx.o


==============================================================================

Image component sizes


      Code (inc. data)   RO Data    RW Data    ZI Data      Debug   Object Name

       628         24          0          0          0      11697   board.o
       108          6          0          4          0       1648   clock.o
      3076       1336       1618          0          0      14475   cmd.o
       456        124         57          0          0       4335   completion.o
       216         42         36          0          0       2630   components.o
       272         26          0          0          0        828   context_rvds.o
      9280       1966       1600         16       1268      36956   core.o
       400        188         19         16          0       3787   cpuport.o
      1060        114         75          0          0       4897   dataqueue.o
       936        114        203          0          0       5565   devfs.o
       936        158        183          0          0       7562   device.o
      1136        192         86        264        196      21494   dfs.o
      2504        364        143          0        292       9103   dfs_file.o
      1680        268        140          0          0       6164   dfs_fs.o
      1672         12         85          0          0       9354   dfs_posix.o
      1308        110        200          0          0      10159   dfs_ramfs.o
      1424         44       2412        192          0      27570   drv_gpio.o
      1196        126         76          0        164      30607   drv_usart.o
       912        108         84         64       1176       6224   drv_usbd.o
       312         74         22          4        384       4613   idle.o
      5720        418        471          0          0      21595   ipc.o
       124         14          0          9          0       1980   irq.o
      2736        228        290         12        128      12520   kservice.o
        22          0          4          0          0       1384   libc.o
        44         12          0          0      32768     645659   main.o
      2288        640        358         32         32       9838   mem.o
        56          0          0          0          0       1213   mem_std.o
      1584        276         86          0          0       4128   memheap.o
      1352        148         59          0          0       5391   msh.o
      1256        540        691          0          0       7806   msh_cmd.o
       416         22          0          0          0       1678   msh_file.o
       836        178        109        180          0       7760   object.o
       592         94        267          0         80       5095   pin.o
       764        150         78         28        256       6277   scheduler.o
      3740        464        368          0          0      27669   serial.o
      1952        182         34          4       4353       5227   shell.o
         0          0          0          0          0        928   signal.o
        64         26        452          0       1536        936   startup_stm32f412zx.o
       128         12          0          4          0       1765   stdio.o
       420         32          0          4          0       5082   stm32f4xx_hal.o
       900         22          0          0          0      32490   stm32f4xx_hal_cortex.o
      2220         26          8          0          0       7157   stm32f4xx_hal_dma.o
       912         40          0          0          0       3627   stm32f4xx_hal_gpio.o
      3436         46          0          0          0      10631   stm32f4xx_hal_pcd.o
       404          6          0          0          0       3205   stm32f4xx_hal_pcd_ex.o
      2204         66          0          0          0       5223   stm32f4xx_hal_rcc.o
      3156         78          0          0          0       4534   stm32f4xx_hal_rcc_ex.o
      5038         50          0          0          0      16160   stm32f4xx_hal_uart.o
        16          0          0          0          0        852   stm32f4xx_it.o
      5590         74          0          4          0      14589   stm32f4xx_ll_usb.o
       432         20         27          0          0       5572   stubs.o
         0          0          0         16          0       4417   symbol.o
       288         32         24          4          0       1805   system_stm32f4xx.o
      1664        292        185         12          0       9965   thread.o
      1116        100         92         16          0       8339   timer.o
       584        120         42          0       4860       2785   usb_winusb.o
       164         52          0         24          0       1116   usbdevice.o
       384         48         15          0          0       3171   waitqueue.o
      1256        220        261        156          0      11268   winusb.o

    ----------------------------------------------------------------------
     83376      10124      11012       1068      47496    1140505   Object Totals
         0          0         32          0          0          0   (incl. Generated)
         6          0         20          3          3          0   (incl. Padding)

    ----------------------------------------------------------------------

      Code (inc. data)   RO Data    RW Data    ZI Data      Debug   Library Member Name

        90          0          0          0          0          0   __dczerorl2.o
         8          0          0          0          0         68   __main.o
       104          0          0          0          0         84   __printf.o
         0          0          0          0          0          0   __rtentry.o
        12          0          0          0          0          0   __rtentry2.o
         6          0          0          0          0          0   __rtentry4.o
        52          8          0          0          0          0   __scatter.o
        28          0          0          0          0          0   __scatter_zi.o
        44          0          0          0          0        108   _printf_char.o
        48          6          0          0          0         96   _printf_char_common.o
         0          0          0          0          0          0   _printf_percent.o
         4          0          0          0          0          0   _printf_percent_end.o
         6          0          0          0          0          0   _printf_s.o
        82          0          0          0          0         80   _printf_str.o
        16          0          0          0          0         68   _snputc.o
        10          0          0          0          0         68   _sputc.o
        10          0          0          0          0         68   defsig_exit.o
        50          0          0          0          0         88   defsig_general.o
        52         38          0          0          0         76   defsig_rtred_inner.o
        14          0          0          0          0         80   defsig_rtred_outer.o
        18          0          0          0          0         80   exit.o
        76          0          0          0          0         88   fclose.o
       100          4          0          0          0        120   fflush.o
        24          0          0          0          0         68   fgetc.o
       570          0          0          0          0        132   filbuf.o
       470          0          0          0          0         88   flsbuf.o
        56          6          0          0          0         80   flushlinebuffered.o
       236          4          0          0          0        128   fopen.o
       280          0          0          0          0         96   freadfast.o
       248          6          0          0          0         84   fseek.o
        66          0          0          0          0         76   ftell.o
       188          0          0          0          0         88   fwritefast.o
         4          0          0          0          0         68   getc.o
         6          0          0          0          0        152   heapauxi.o
         4          0          0          0          0        136   hguard.o
       312         46          0          0          0        112   initio.o
         2          0          0          0          0          0   libinit.o
        10          0          0          0          0          0   libinit2.o
         2          0          0          0          0          0   libshutdown.o
         6          0          0          0          0          0   libshutdown2.o
         8          4          0          0         96         68   libspace.o
        72          0          0          0          0         76   llsdiv.o
       238          0          0          0          0        100   lludivv7m.o
        88          0          0          0          0         76   memcmp.o
        52          4          0          0          0         84   noretval__2snprintf.o
         8          4          0          0          0         68   rt_errno_addr_intlibspace.o
        68          0          0          0          0         68   rt_memclr.o
        78          0          0          0          0         80   rt_memclr_w.o
       138          0          0          0          0         68   rt_memcpy_v6.o
       100          0          0          0          0         80   rt_memcpy_w.o
         2          0          0          0          0          0   rtexit.o
        10          0          0          0          0          0   rtexit2.o
        70          0          0          0          0         80   setvbuf.o
       240          6          0          0          0        156   stdio.o
         0          0          0         12        252          0   stdio_streams.o
        24          0          0          0          0         68   strcat.o
       128          0          0          0          0         68   strcmpv7m.o
        72          0          0          0          0         80   strcpy.o
        62          0          0          0          0         76   strlen.o
       150          0          0          0          0         80   strncmp.o
        86          0          0          0          0         76   strncpy.o
        22          0          0          0          0         68   strrchr.o
        36          0          0          0          0         80   strstr.o
        74          0          0          0          0         80   sys_stackheap_outer.o
         2          0          0          0          0         68   use_no_semi.o
        10          0          0          0          0        116   fpinit.o

    ----------------------------------------------------------------------
      5160        136          0         12        352       4344   Library Totals
         8          0          0          0          4          0   (incl. Padding)

    ----------------------------------------------------------------------

      Code (inc. data)   RO Data    RW Data    ZI Data      Debug   Library Name

      5142        136          0         12        348       4228   c_w.l
        10          0          0          0          0        116   fz_wm.l

    ----------------------------------------------------------------------
      5160        136          0         12        352       4344   Library Totals

    ----------------------------------------------------------------------

==============================================================================


      Code (inc. data)   RO Data    RW Data    ZI Data      Debug   

     88536      10260      11012       1080      47848    1130657   Grand Totals
     88536      10260      11012        244      47848    1130657   ELF Image Totals (compressed)
     88536      10260      11012        244          0          0   ROM Totals

==============================================================================

    Total RO  Size (Code + RO Data)                99548 (  97.21kB)
    Total RW  Size (RW Data + ZI Data)             48928 (  47.78kB)
    Total ROM Size (Code + RO Data + RW Data)      99792 (  97.45kB)

==============================================================================

